GAS LISTING linobj/Ch02_03.s 			page 1


 GNU ассемблер, версия 2.41 (x86_64-redhat-linux)
	 используется BFD версии version 2.41-37.fc40.
 пер-ные пар-ры	: -I -I --gdwarf-5 --64 -aghl=linobj/Ch02_03.lst 
 входной файл  	: linobj/Ch02_03.s
 выходной файл 	: linobj/Ch02_03.o
 цель          	: x86_64-redhat-linux-gnu
 метка времени 	: 2024-11-07T18:40:32.000+0300

GAS LISTING linobj/Ch02_03.s 			page 2


   1              		.file	"Ch02_03.cpp"
   2              		.text
   3              	.Ltext0:
   4              		.file 0 "/home/vz/\320\224\320\276\320\272\321\203\320\274\320\265\320\275\321\202\321\213/code/GR
   5              	#APP
   6              		.globl _ZSt21ios_base_library_initv
   7              		.section	.rodata.str1.1,"aMS",@progbits,1
   8              	.LC2:
   9 0000 0A526573 		.string	"\nResults for MulI16_Iavx\n"
   9      756C7473 
   9      20666F72 
   9      204D756C 
   9      4931365F 
  10              	.LC3:
  11 001a 615B00   		.string	"a["
  12              	.LC4:
  13 001d 5D3A2000 		.string	"]: "
  14              	.LC5:
  15 0021 202000   		.string	"  "
  16              	.LC6:
  17 0024 625B00   		.string	"b["
  18              	.LC7:
  19 0027 635B305D 		.string	"c[0]["
  19      5B00
  20              	.LC8:
  21 002d 635B315D 		.string	"c[1]["
  21      5B00
  22              	.LC11:
  23 0033 0A526573 		.string	"\nResults for MulI32a_Iavx\n"
  23      756C7473 
  23      20666F72 
  23      204D756C 
  23      49333261 
  24              	.LC12:
  25 004e 635B00   		.string	"c["
  26              	.LC15:
  27 0051 0A526573 		.string	"\nResults for MulI32b_Iavx\n"
  27      756C7473 
  27      20666F72 
  27      204D756C 
  27      49333262 
  28              	#NO_APP
  29              		.section	.text.unlikely,"ax",@progbits
  30              	.LCOLDB16:
  31              		.section	.text.startup,"ax",@progbits
  32              	.LHOTB16:
  33              		.p2align 4
  34              		.section	.text.unlikely
  35              	.Ltext_cold0:
  36              		.section	.text.startup
  37              		.globl	main
  38              		.type	main, @function
  39              	main:
  40              	.LFB1975:
  41              		.file 1 "Ch02_03.cpp"
   1:Ch02_03.cpp   **** //------------------------------------------------
   2:Ch02_03.cpp   **** //               Ch02_03.cpp
GAS LISTING linobj/Ch02_03.s 			page 3


   3:Ch02_03.cpp   **** //------------------------------------------------
   4:Ch02_03.cpp   **** 
   5:Ch02_03.cpp   **** #include <iostream>
   6:Ch02_03.cpp   **** #include <iomanip>
   7:Ch02_03.cpp   **** #include <string>
   8:Ch02_03.cpp   **** #include "Ch02_03.h"
   9:Ch02_03.cpp   **** 
  10:Ch02_03.cpp   **** static void MulI16(void);
  11:Ch02_03.cpp   **** static void MulI32a(void);
  12:Ch02_03.cpp   **** static void MulI32b(void);
  13:Ch02_03.cpp   **** 
  14:Ch02_03.cpp   **** int main()
  15:Ch02_03.cpp   **** {
  42              		.loc 1 15 1 view -0
  43              		.cfi_startproc
  44              		.cfi_personality 0x3,__gxx_personality_v0
  45              		.cfi_lsda 0x3,.LLSDA1975
  16:Ch02_03.cpp   ****     const char nl = '\n';
  46              		.loc 1 16 5 view .LVU1
  47              	.LVL0:
  17:Ch02_03.cpp   ****     std::string sep(75, '-');
  48              		.loc 1 17 5 view .LVU2
  49              	.LBB683:
  50              	.LBI683:
  51              		.file 2 "/usr/include/c++/14/bits/allocator.h"
   1:/usr/include/c++/14/bits/allocator.h **** // Allocators -*- C++ -*-
   2:/usr/include/c++/14/bits/allocator.h **** 
   3:/usr/include/c++/14/bits/allocator.h **** // Copyright (C) 2001-2024 Free Software Foundation, Inc.
   4:/usr/include/c++/14/bits/allocator.h **** //
   5:/usr/include/c++/14/bits/allocator.h **** // This file is part of the GNU ISO C++ Library.  This library is free
   6:/usr/include/c++/14/bits/allocator.h **** // software; you can redistribute it and/or modify it under the
   7:/usr/include/c++/14/bits/allocator.h **** // terms of the GNU General Public License as published by the
   8:/usr/include/c++/14/bits/allocator.h **** // Free Software Foundation; either version 3, or (at your option)
   9:/usr/include/c++/14/bits/allocator.h **** // any later version.
  10:/usr/include/c++/14/bits/allocator.h **** 
  11:/usr/include/c++/14/bits/allocator.h **** // This library is distributed in the hope that it will be useful,
  12:/usr/include/c++/14/bits/allocator.h **** // but WITHOUT ANY WARRANTY; without even the implied warranty of
  13:/usr/include/c++/14/bits/allocator.h **** // MERCHANTABILITY or FITNESS FOR A PARTICULAR PURPOSE.  See the
  14:/usr/include/c++/14/bits/allocator.h **** // GNU General Public License for more details.
  15:/usr/include/c++/14/bits/allocator.h **** 
  16:/usr/include/c++/14/bits/allocator.h **** // Under Section 7 of GPL version 3, you are granted additional
  17:/usr/include/c++/14/bits/allocator.h **** // permissions described in the GCC Runtime Library Exception, version
  18:/usr/include/c++/14/bits/allocator.h **** // 3.1, as published by the Free Software Foundation.
  19:/usr/include/c++/14/bits/allocator.h **** 
  20:/usr/include/c++/14/bits/allocator.h **** // You should have received a copy of the GNU General Public License and
  21:/usr/include/c++/14/bits/allocator.h **** // a copy of the GCC Runtime Library Exception along with this program;
  22:/usr/include/c++/14/bits/allocator.h **** // see the files COPYING3 and COPYING.RUNTIME respectively.  If not, see
  23:/usr/include/c++/14/bits/allocator.h **** // <http://www.gnu.org/licenses/>.
  24:/usr/include/c++/14/bits/allocator.h **** 
  25:/usr/include/c++/14/bits/allocator.h **** /*
  26:/usr/include/c++/14/bits/allocator.h ****  * Copyright (c) 1996-1997
  27:/usr/include/c++/14/bits/allocator.h ****  * Silicon Graphics Computer Systems, Inc.
  28:/usr/include/c++/14/bits/allocator.h ****  *
  29:/usr/include/c++/14/bits/allocator.h ****  * Permission to use, copy, modify, distribute and sell this software
  30:/usr/include/c++/14/bits/allocator.h ****  * and its documentation for any purpose is hereby granted without fee,
  31:/usr/include/c++/14/bits/allocator.h ****  * provided that the above copyright notice appear in all copies and
  32:/usr/include/c++/14/bits/allocator.h ****  * that both that copyright notice and this permission notice appear
GAS LISTING linobj/Ch02_03.s 			page 4


  33:/usr/include/c++/14/bits/allocator.h ****  * in supporting documentation.  Silicon Graphics makes no
  34:/usr/include/c++/14/bits/allocator.h ****  * representations about the suitability of this software for any
  35:/usr/include/c++/14/bits/allocator.h ****  * purpose.  It is provided "as is" without express or implied warranty.
  36:/usr/include/c++/14/bits/allocator.h ****  */
  37:/usr/include/c++/14/bits/allocator.h **** 
  38:/usr/include/c++/14/bits/allocator.h **** /** @file bits/allocator.h
  39:/usr/include/c++/14/bits/allocator.h ****  *  This is an internal header file, included by other library headers.
  40:/usr/include/c++/14/bits/allocator.h ****  *  Do not attempt to use it directly. @headername{memory}
  41:/usr/include/c++/14/bits/allocator.h ****  */
  42:/usr/include/c++/14/bits/allocator.h **** 
  43:/usr/include/c++/14/bits/allocator.h **** #ifndef _ALLOCATOR_H
  44:/usr/include/c++/14/bits/allocator.h **** #define _ALLOCATOR_H 1
  45:/usr/include/c++/14/bits/allocator.h **** 
  46:/usr/include/c++/14/bits/allocator.h **** #include <bits/c++allocator.h> // Define the base class to std::allocator.
  47:/usr/include/c++/14/bits/allocator.h **** #include <bits/memoryfwd.h>
  48:/usr/include/c++/14/bits/allocator.h **** #if __cplusplus >= 201103L
  49:/usr/include/c++/14/bits/allocator.h **** #include <type_traits>
  50:/usr/include/c++/14/bits/allocator.h **** #endif
  51:/usr/include/c++/14/bits/allocator.h **** 
  52:/usr/include/c++/14/bits/allocator.h **** namespace std _GLIBCXX_VISIBILITY(default)
  53:/usr/include/c++/14/bits/allocator.h **** {
  54:/usr/include/c++/14/bits/allocator.h **** _GLIBCXX_BEGIN_NAMESPACE_VERSION
  55:/usr/include/c++/14/bits/allocator.h **** 
  56:/usr/include/c++/14/bits/allocator.h ****   /**
  57:/usr/include/c++/14/bits/allocator.h ****    *  @addtogroup allocators
  58:/usr/include/c++/14/bits/allocator.h ****    *  @{
  59:/usr/include/c++/14/bits/allocator.h ****    */
  60:/usr/include/c++/14/bits/allocator.h **** 
  61:/usr/include/c++/14/bits/allocator.h ****   // Since C++20 the primary template should be used for allocator<void>,
  62:/usr/include/c++/14/bits/allocator.h ****   // but then it would have a non-trivial default ctor and dtor for C++20,
  63:/usr/include/c++/14/bits/allocator.h ****   // but trivial for C++98-17, which would be an ABI incompatibility between
  64:/usr/include/c++/14/bits/allocator.h ****   // different standard dialects. So C++20 still uses the allocator<void>
  65:/usr/include/c++/14/bits/allocator.h ****   // explicit specialization, with the historical ABI properties, but with
  66:/usr/include/c++/14/bits/allocator.h ****   // the same members that are present in the primary template.
  67:/usr/include/c++/14/bits/allocator.h **** 
  68:/usr/include/c++/14/bits/allocator.h ****   /** std::allocator<void> specialization.
  69:/usr/include/c++/14/bits/allocator.h ****    *
  70:/usr/include/c++/14/bits/allocator.h ****    * @headerfile memory
  71:/usr/include/c++/14/bits/allocator.h ****    */
  72:/usr/include/c++/14/bits/allocator.h ****   template<>
  73:/usr/include/c++/14/bits/allocator.h ****     class allocator<void>
  74:/usr/include/c++/14/bits/allocator.h ****     {
  75:/usr/include/c++/14/bits/allocator.h ****     public:
  76:/usr/include/c++/14/bits/allocator.h ****       typedef void        value_type;
  77:/usr/include/c++/14/bits/allocator.h ****       typedef size_t      size_type;
  78:/usr/include/c++/14/bits/allocator.h ****       typedef ptrdiff_t   difference_type;
  79:/usr/include/c++/14/bits/allocator.h **** 
  80:/usr/include/c++/14/bits/allocator.h **** #if __cplusplus <= 201703L
  81:/usr/include/c++/14/bits/allocator.h ****       // These were removed for C++20, allocator_traits does the right thing.
  82:/usr/include/c++/14/bits/allocator.h ****       typedef void*       pointer;
  83:/usr/include/c++/14/bits/allocator.h ****       typedef const void* const_pointer;
  84:/usr/include/c++/14/bits/allocator.h **** 
  85:/usr/include/c++/14/bits/allocator.h ****       template<typename _Tp1>
  86:/usr/include/c++/14/bits/allocator.h **** 	struct rebind
  87:/usr/include/c++/14/bits/allocator.h **** 	{ typedef allocator<_Tp1> other; };
  88:/usr/include/c++/14/bits/allocator.h **** #endif
  89:/usr/include/c++/14/bits/allocator.h **** 
GAS LISTING linobj/Ch02_03.s 			page 5


  90:/usr/include/c++/14/bits/allocator.h **** #if __cplusplus >= 201103L
  91:/usr/include/c++/14/bits/allocator.h ****       // _GLIBCXX_RESOLVE_LIB_DEFECTS
  92:/usr/include/c++/14/bits/allocator.h ****       // 2103. std::allocator propagate_on_container_move_assignment
  93:/usr/include/c++/14/bits/allocator.h ****       using propagate_on_container_move_assignment = true_type;
  94:/usr/include/c++/14/bits/allocator.h **** 
  95:/usr/include/c++/14/bits/allocator.h ****       using is_always_equal
  96:/usr/include/c++/14/bits/allocator.h **** 	_GLIBCXX20_DEPRECATED_SUGGEST("std::allocator_traits::is_always_equal")
  97:/usr/include/c++/14/bits/allocator.h **** 	= true_type;
  98:/usr/include/c++/14/bits/allocator.h **** 
  99:/usr/include/c++/14/bits/allocator.h **** #if __cplusplus >= 202002L
 100:/usr/include/c++/14/bits/allocator.h ****       // As noted above, these members are present for C++20 to provide the
 101:/usr/include/c++/14/bits/allocator.h ****       // same API as the primary template, but still trivial as in pre-C++20.
 102:/usr/include/c++/14/bits/allocator.h ****       allocator() = default;
 103:/usr/include/c++/14/bits/allocator.h ****       ~allocator() = default;
 104:/usr/include/c++/14/bits/allocator.h **** 
 105:/usr/include/c++/14/bits/allocator.h ****       template<typename _Up>
 106:/usr/include/c++/14/bits/allocator.h **** 	__attribute__((__always_inline__))
 107:/usr/include/c++/14/bits/allocator.h **** 	constexpr
 108:/usr/include/c++/14/bits/allocator.h **** 	allocator(const allocator<_Up>&) noexcept { }
 109:/usr/include/c++/14/bits/allocator.h **** 
 110:/usr/include/c++/14/bits/allocator.h ****       // No allocate member because it's ill-formed by LWG 3307.
 111:/usr/include/c++/14/bits/allocator.h ****       // No deallocate member because it would be undefined to call it
 112:/usr/include/c++/14/bits/allocator.h ****       // with any pointer which wasn't obtained from allocate.
 113:/usr/include/c++/14/bits/allocator.h **** #endif // C++20
 114:/usr/include/c++/14/bits/allocator.h **** #endif // C++11
 115:/usr/include/c++/14/bits/allocator.h ****     };
 116:/usr/include/c++/14/bits/allocator.h **** 
 117:/usr/include/c++/14/bits/allocator.h ****   /**
 118:/usr/include/c++/14/bits/allocator.h ****    * @brief  The @a standard allocator, as per C++03 [20.4.1].
 119:/usr/include/c++/14/bits/allocator.h ****    *
 120:/usr/include/c++/14/bits/allocator.h ****    *  See https://gcc.gnu.org/onlinedocs/libstdc++/manual/memory.html#std.util.memory.allocator
 121:/usr/include/c++/14/bits/allocator.h ****    *  for further details.
 122:/usr/include/c++/14/bits/allocator.h ****    *
 123:/usr/include/c++/14/bits/allocator.h ****    *  @tparam  _Tp  Type of allocated object.
 124:/usr/include/c++/14/bits/allocator.h ****    *
 125:/usr/include/c++/14/bits/allocator.h ****    *  @headerfile memory
 126:/usr/include/c++/14/bits/allocator.h ****    */
 127:/usr/include/c++/14/bits/allocator.h ****   template<typename _Tp>
 128:/usr/include/c++/14/bits/allocator.h ****     class allocator : public __allocator_base<_Tp>
 129:/usr/include/c++/14/bits/allocator.h ****     {
 130:/usr/include/c++/14/bits/allocator.h ****     public:
 131:/usr/include/c++/14/bits/allocator.h ****       typedef _Tp        value_type;
 132:/usr/include/c++/14/bits/allocator.h ****       typedef size_t     size_type;
 133:/usr/include/c++/14/bits/allocator.h ****       typedef ptrdiff_t  difference_type;
 134:/usr/include/c++/14/bits/allocator.h **** 
 135:/usr/include/c++/14/bits/allocator.h **** #if __cplusplus <= 201703L
 136:/usr/include/c++/14/bits/allocator.h ****       // These were removed for C++20.
 137:/usr/include/c++/14/bits/allocator.h ****       typedef _Tp*       pointer;
 138:/usr/include/c++/14/bits/allocator.h ****       typedef const _Tp* const_pointer;
 139:/usr/include/c++/14/bits/allocator.h ****       typedef _Tp&       reference;
 140:/usr/include/c++/14/bits/allocator.h ****       typedef const _Tp& const_reference;
 141:/usr/include/c++/14/bits/allocator.h **** 
 142:/usr/include/c++/14/bits/allocator.h ****       template<typename _Tp1>
 143:/usr/include/c++/14/bits/allocator.h **** 	struct rebind
 144:/usr/include/c++/14/bits/allocator.h **** 	{ typedef allocator<_Tp1> other; };
 145:/usr/include/c++/14/bits/allocator.h **** #endif
 146:/usr/include/c++/14/bits/allocator.h **** 
GAS LISTING linobj/Ch02_03.s 			page 6


 147:/usr/include/c++/14/bits/allocator.h **** #if __cplusplus >= 201103L
 148:/usr/include/c++/14/bits/allocator.h ****       // _GLIBCXX_RESOLVE_LIB_DEFECTS
 149:/usr/include/c++/14/bits/allocator.h ****       // 2103. std::allocator propagate_on_container_move_assignment
 150:/usr/include/c++/14/bits/allocator.h ****       using propagate_on_container_move_assignment = true_type;
 151:/usr/include/c++/14/bits/allocator.h **** 
 152:/usr/include/c++/14/bits/allocator.h ****       using is_always_equal
 153:/usr/include/c++/14/bits/allocator.h **** 	_GLIBCXX20_DEPRECATED_SUGGEST("std::allocator_traits::is_always_equal")
 154:/usr/include/c++/14/bits/allocator.h **** 	= true_type;
 155:/usr/include/c++/14/bits/allocator.h **** #endif
 156:/usr/include/c++/14/bits/allocator.h **** 
 157:/usr/include/c++/14/bits/allocator.h ****       // _GLIBCXX_RESOLVE_LIB_DEFECTS
 158:/usr/include/c++/14/bits/allocator.h ****       // 3035. std::allocator's constructors should be constexpr
 159:/usr/include/c++/14/bits/allocator.h ****       __attribute__((__always_inline__))
 160:/usr/include/c++/14/bits/allocator.h ****       _GLIBCXX20_CONSTEXPR
 161:/usr/include/c++/14/bits/allocator.h ****       allocator() _GLIBCXX_NOTHROW { }
  52              		.loc 2 161 7 view .LVU3
  53              	.LBB684:
  54              	.LBI684:
  55              		.file 3 "/usr/include/c++/14/bits/new_allocator.h"
   1:/usr/include/c++/14/bits/new_allocator.h **** // Allocator that wraps operator new -*- C++ -*-
   2:/usr/include/c++/14/bits/new_allocator.h **** 
   3:/usr/include/c++/14/bits/new_allocator.h **** // Copyright (C) 2001-2024 Free Software Foundation, Inc.
   4:/usr/include/c++/14/bits/new_allocator.h **** //
   5:/usr/include/c++/14/bits/new_allocator.h **** // This file is part of the GNU ISO C++ Library.  This library is free
   6:/usr/include/c++/14/bits/new_allocator.h **** // software; you can redistribute it and/or modify it under the
   7:/usr/include/c++/14/bits/new_allocator.h **** // terms of the GNU General Public License as published by the
   8:/usr/include/c++/14/bits/new_allocator.h **** // Free Software Foundation; either version 3, or (at your option)
   9:/usr/include/c++/14/bits/new_allocator.h **** // any later version.
  10:/usr/include/c++/14/bits/new_allocator.h **** 
  11:/usr/include/c++/14/bits/new_allocator.h **** // This library is distributed in the hope that it will be useful,
  12:/usr/include/c++/14/bits/new_allocator.h **** // but WITHOUT ANY WARRANTY; without even the implied warranty of
  13:/usr/include/c++/14/bits/new_allocator.h **** // MERCHANTABILITY or FITNESS FOR A PARTICULAR PURPOSE.  See the
  14:/usr/include/c++/14/bits/new_allocator.h **** // GNU General Public License for more details.
  15:/usr/include/c++/14/bits/new_allocator.h **** 
  16:/usr/include/c++/14/bits/new_allocator.h **** // Under Section 7 of GPL version 3, you are granted additional
  17:/usr/include/c++/14/bits/new_allocator.h **** // permissions described in the GCC Runtime Library Exception, version
  18:/usr/include/c++/14/bits/new_allocator.h **** // 3.1, as published by the Free Software Foundation.
  19:/usr/include/c++/14/bits/new_allocator.h **** 
  20:/usr/include/c++/14/bits/new_allocator.h **** // You should have received a copy of the GNU General Public License and
  21:/usr/include/c++/14/bits/new_allocator.h **** // a copy of the GCC Runtime Library Exception along with this program;
  22:/usr/include/c++/14/bits/new_allocator.h **** // see the files COPYING3 and COPYING.RUNTIME respectively.  If not, see
  23:/usr/include/c++/14/bits/new_allocator.h **** // <http://www.gnu.org/licenses/>.
  24:/usr/include/c++/14/bits/new_allocator.h **** 
  25:/usr/include/c++/14/bits/new_allocator.h **** /** @file bits/new_allocator.h
  26:/usr/include/c++/14/bits/new_allocator.h ****  *  This is an internal header file, included by other library headers.
  27:/usr/include/c++/14/bits/new_allocator.h ****  *  Do not attempt to use it directly. @headername{memory}
  28:/usr/include/c++/14/bits/new_allocator.h ****  */
  29:/usr/include/c++/14/bits/new_allocator.h **** 
  30:/usr/include/c++/14/bits/new_allocator.h **** #ifndef _STD_NEW_ALLOCATOR_H
  31:/usr/include/c++/14/bits/new_allocator.h **** #define _STD_NEW_ALLOCATOR_H 1
  32:/usr/include/c++/14/bits/new_allocator.h **** 
  33:/usr/include/c++/14/bits/new_allocator.h **** #include <bits/c++config.h>
  34:/usr/include/c++/14/bits/new_allocator.h **** #include <new>
  35:/usr/include/c++/14/bits/new_allocator.h **** #include <bits/functexcept.h>
  36:/usr/include/c++/14/bits/new_allocator.h **** #include <bits/move.h>
  37:/usr/include/c++/14/bits/new_allocator.h **** #if __cplusplus >= 201103L
  38:/usr/include/c++/14/bits/new_allocator.h **** #include <type_traits>
GAS LISTING linobj/Ch02_03.s 			page 7


  39:/usr/include/c++/14/bits/new_allocator.h **** #endif
  40:/usr/include/c++/14/bits/new_allocator.h **** 
  41:/usr/include/c++/14/bits/new_allocator.h **** namespace std _GLIBCXX_VISIBILITY(default)
  42:/usr/include/c++/14/bits/new_allocator.h **** {
  43:/usr/include/c++/14/bits/new_allocator.h **** _GLIBCXX_BEGIN_NAMESPACE_VERSION
  44:/usr/include/c++/14/bits/new_allocator.h **** 
  45:/usr/include/c++/14/bits/new_allocator.h ****   /**
  46:/usr/include/c++/14/bits/new_allocator.h ****    * @brief  An allocator that uses global `new`, as per C++03 [20.4.1].
  47:/usr/include/c++/14/bits/new_allocator.h ****    * @ingroup allocators
  48:/usr/include/c++/14/bits/new_allocator.h ****    *
  49:/usr/include/c++/14/bits/new_allocator.h ****    * This is precisely the allocator defined in the C++ Standard.
  50:/usr/include/c++/14/bits/new_allocator.h ****    *   - all allocation calls `operator new`
  51:/usr/include/c++/14/bits/new_allocator.h ****    *   - all deallocation calls `operator delete`
  52:/usr/include/c++/14/bits/new_allocator.h ****    *
  53:/usr/include/c++/14/bits/new_allocator.h ****    * This is the default base-class implementation of `std::allocator`,
  54:/usr/include/c++/14/bits/new_allocator.h ****    * and is also the base-class of the `__gnu_cxx::new_allocator` extension.
  55:/usr/include/c++/14/bits/new_allocator.h ****    * You should use either `std::allocator` or `__gnu_cxx::new_allocator`
  56:/usr/include/c++/14/bits/new_allocator.h ****    * instead of using this directly.
  57:/usr/include/c++/14/bits/new_allocator.h ****    *
  58:/usr/include/c++/14/bits/new_allocator.h ****    * @tparam  _Tp  Type of allocated object.
  59:/usr/include/c++/14/bits/new_allocator.h ****    *
  60:/usr/include/c++/14/bits/new_allocator.h ****    * @headerfile memory
  61:/usr/include/c++/14/bits/new_allocator.h ****    */
  62:/usr/include/c++/14/bits/new_allocator.h ****   template<typename _Tp>
  63:/usr/include/c++/14/bits/new_allocator.h ****     class __new_allocator
  64:/usr/include/c++/14/bits/new_allocator.h ****     {
  65:/usr/include/c++/14/bits/new_allocator.h ****     public:
  66:/usr/include/c++/14/bits/new_allocator.h ****       typedef _Tp        value_type;
  67:/usr/include/c++/14/bits/new_allocator.h ****       typedef std::size_t     size_type;
  68:/usr/include/c++/14/bits/new_allocator.h ****       typedef std::ptrdiff_t  difference_type;
  69:/usr/include/c++/14/bits/new_allocator.h **** #if __cplusplus <= 201703L
  70:/usr/include/c++/14/bits/new_allocator.h ****       typedef _Tp*       pointer;
  71:/usr/include/c++/14/bits/new_allocator.h ****       typedef const _Tp* const_pointer;
  72:/usr/include/c++/14/bits/new_allocator.h ****       typedef _Tp&       reference;
  73:/usr/include/c++/14/bits/new_allocator.h ****       typedef const _Tp& const_reference;
  74:/usr/include/c++/14/bits/new_allocator.h **** 
  75:/usr/include/c++/14/bits/new_allocator.h ****       template<typename _Tp1>
  76:/usr/include/c++/14/bits/new_allocator.h **** 	struct rebind
  77:/usr/include/c++/14/bits/new_allocator.h **** 	{ typedef __new_allocator<_Tp1> other; };
  78:/usr/include/c++/14/bits/new_allocator.h **** #endif
  79:/usr/include/c++/14/bits/new_allocator.h **** 
  80:/usr/include/c++/14/bits/new_allocator.h **** #if __cplusplus >= 201103L
  81:/usr/include/c++/14/bits/new_allocator.h ****       // _GLIBCXX_RESOLVE_LIB_DEFECTS
  82:/usr/include/c++/14/bits/new_allocator.h ****       // 2103. propagate_on_container_move_assignment
  83:/usr/include/c++/14/bits/new_allocator.h ****       typedef std::true_type propagate_on_container_move_assignment;
  84:/usr/include/c++/14/bits/new_allocator.h **** #endif
  85:/usr/include/c++/14/bits/new_allocator.h **** 
  86:/usr/include/c++/14/bits/new_allocator.h ****       __attribute__((__always_inline__))
  87:/usr/include/c++/14/bits/new_allocator.h ****       _GLIBCXX20_CONSTEXPR
  88:/usr/include/c++/14/bits/new_allocator.h ****       __new_allocator() _GLIBCXX_USE_NOEXCEPT { }
  56              		.loc 3 88 7 view .LVU4
  57              		.loc 3 88 7 is_stmt 0 view .LVU5
  58              	.LBE684:
  59              	.LBE683:
  15:Ch02_03.cpp   ****     const char nl = '\n';
  60              		.loc 1 15 1 view .LVU6
  61 0000 4157     		pushq	%r15
GAS LISTING linobj/Ch02_03.s 			page 8


  62              		.cfi_def_cfa_offset 16
  63              		.cfi_offset 15, -16
  64              	.LBB685:
  65              	.LBB686:
  66              	.LBB687:
  67              		.file 4 "/usr/include/c++/14/bits/basic_string.h"
   1:/usr/include/c++/14/bits/basic_string.h **** // Components for manipulating sequences of characters -*- C++ -*-
   2:/usr/include/c++/14/bits/basic_string.h **** 
   3:/usr/include/c++/14/bits/basic_string.h **** // Copyright (C) 1997-2024 Free Software Foundation, Inc.
   4:/usr/include/c++/14/bits/basic_string.h **** //
   5:/usr/include/c++/14/bits/basic_string.h **** // This file is part of the GNU ISO C++ Library.  This library is free
   6:/usr/include/c++/14/bits/basic_string.h **** // software; you can redistribute it and/or modify it under the
   7:/usr/include/c++/14/bits/basic_string.h **** // terms of the GNU General Public License as published by the
   8:/usr/include/c++/14/bits/basic_string.h **** // Free Software Foundation; either version 3, or (at your option)
   9:/usr/include/c++/14/bits/basic_string.h **** // any later version.
  10:/usr/include/c++/14/bits/basic_string.h **** 
  11:/usr/include/c++/14/bits/basic_string.h **** // This library is distributed in the hope that it will be useful,
  12:/usr/include/c++/14/bits/basic_string.h **** // but WITHOUT ANY WARRANTY; without even the implied warranty of
  13:/usr/include/c++/14/bits/basic_string.h **** // MERCHANTABILITY or FITNESS FOR A PARTICULAR PURPOSE.  See the
  14:/usr/include/c++/14/bits/basic_string.h **** // GNU General Public License for more details.
  15:/usr/include/c++/14/bits/basic_string.h **** 
  16:/usr/include/c++/14/bits/basic_string.h **** // Under Section 7 of GPL version 3, you are granted additional
  17:/usr/include/c++/14/bits/basic_string.h **** // permissions described in the GCC Runtime Library Exception, version
  18:/usr/include/c++/14/bits/basic_string.h **** // 3.1, as published by the Free Software Foundation.
  19:/usr/include/c++/14/bits/basic_string.h **** 
  20:/usr/include/c++/14/bits/basic_string.h **** // You should have received a copy of the GNU General Public License and
  21:/usr/include/c++/14/bits/basic_string.h **** // a copy of the GCC Runtime Library Exception along with this program;
  22:/usr/include/c++/14/bits/basic_string.h **** // see the files COPYING3 and COPYING.RUNTIME respectively.  If not, see
  23:/usr/include/c++/14/bits/basic_string.h **** // <http://www.gnu.org/licenses/>.
  24:/usr/include/c++/14/bits/basic_string.h **** 
  25:/usr/include/c++/14/bits/basic_string.h **** /** @file bits/basic_string.h
  26:/usr/include/c++/14/bits/basic_string.h ****  *  This is an internal header file, included by other library headers.
  27:/usr/include/c++/14/bits/basic_string.h ****  *  Do not attempt to use it directly. @headername{string}
  28:/usr/include/c++/14/bits/basic_string.h ****  */
  29:/usr/include/c++/14/bits/basic_string.h **** 
  30:/usr/include/c++/14/bits/basic_string.h **** //
  31:/usr/include/c++/14/bits/basic_string.h **** // ISO C++ 14882: 21 Strings library
  32:/usr/include/c++/14/bits/basic_string.h **** //
  33:/usr/include/c++/14/bits/basic_string.h **** 
  34:/usr/include/c++/14/bits/basic_string.h **** #ifndef _BASIC_STRING_H
  35:/usr/include/c++/14/bits/basic_string.h **** #define _BASIC_STRING_H 1
  36:/usr/include/c++/14/bits/basic_string.h **** 
  37:/usr/include/c++/14/bits/basic_string.h **** #pragma GCC system_header
  38:/usr/include/c++/14/bits/basic_string.h **** 
  39:/usr/include/c++/14/bits/basic_string.h **** #include <ext/alloc_traits.h>
  40:/usr/include/c++/14/bits/basic_string.h **** #include <debug/debug.h>
  41:/usr/include/c++/14/bits/basic_string.h **** 
  42:/usr/include/c++/14/bits/basic_string.h **** #if __cplusplus >= 201103L
  43:/usr/include/c++/14/bits/basic_string.h **** #include <initializer_list>
  44:/usr/include/c++/14/bits/basic_string.h **** #endif
  45:/usr/include/c++/14/bits/basic_string.h **** 
  46:/usr/include/c++/14/bits/basic_string.h **** #if __cplusplus >= 201703L
  47:/usr/include/c++/14/bits/basic_string.h **** # include <string_view>
  48:/usr/include/c++/14/bits/basic_string.h **** #endif
  49:/usr/include/c++/14/bits/basic_string.h **** 
  50:/usr/include/c++/14/bits/basic_string.h **** #if __cplusplus > 202302L
  51:/usr/include/c++/14/bits/basic_string.h **** # include <charconv>
GAS LISTING linobj/Ch02_03.s 			page 9


  52:/usr/include/c++/14/bits/basic_string.h **** #endif
  53:/usr/include/c++/14/bits/basic_string.h **** 
  54:/usr/include/c++/14/bits/basic_string.h **** #include <bits/version.h>
  55:/usr/include/c++/14/bits/basic_string.h **** 
  56:/usr/include/c++/14/bits/basic_string.h **** #if ! _GLIBCXX_USE_CXX11_ABI
  57:/usr/include/c++/14/bits/basic_string.h **** # include "cow_string.h"
  58:/usr/include/c++/14/bits/basic_string.h **** #else
  59:/usr/include/c++/14/bits/basic_string.h **** 
  60:/usr/include/c++/14/bits/basic_string.h **** namespace std _GLIBCXX_VISIBILITY(default)
  61:/usr/include/c++/14/bits/basic_string.h **** {
  62:/usr/include/c++/14/bits/basic_string.h **** _GLIBCXX_BEGIN_NAMESPACE_VERSION
  63:/usr/include/c++/14/bits/basic_string.h **** _GLIBCXX_BEGIN_NAMESPACE_CXX11
  64:/usr/include/c++/14/bits/basic_string.h **** 
  65:/usr/include/c++/14/bits/basic_string.h ****   /**
  66:/usr/include/c++/14/bits/basic_string.h ****    *  @class basic_string basic_string.h <string>
  67:/usr/include/c++/14/bits/basic_string.h ****    *  @brief  Managing sequences of characters and character-like objects.
  68:/usr/include/c++/14/bits/basic_string.h ****    *
  69:/usr/include/c++/14/bits/basic_string.h ****    *  @ingroup strings
  70:/usr/include/c++/14/bits/basic_string.h ****    *  @ingroup sequences
  71:/usr/include/c++/14/bits/basic_string.h ****    *  @headerfile string
  72:/usr/include/c++/14/bits/basic_string.h ****    *  @since C++98
  73:/usr/include/c++/14/bits/basic_string.h ****    *
  74:/usr/include/c++/14/bits/basic_string.h ****    *  @tparam _CharT  Type of character
  75:/usr/include/c++/14/bits/basic_string.h ****    *  @tparam _Traits  Traits for character type, defaults to
  76:/usr/include/c++/14/bits/basic_string.h ****    *                   char_traits<_CharT>.
  77:/usr/include/c++/14/bits/basic_string.h ****    *  @tparam _Alloc  Allocator type, defaults to allocator<_CharT>.
  78:/usr/include/c++/14/bits/basic_string.h ****    *
  79:/usr/include/c++/14/bits/basic_string.h ****    *  Meets the requirements of a <a href="tables.html#65">container</a>, a
  80:/usr/include/c++/14/bits/basic_string.h ****    *  <a href="tables.html#66">reversible container</a>, and a
  81:/usr/include/c++/14/bits/basic_string.h ****    *  <a href="tables.html#67">sequence</a>.  Of the
  82:/usr/include/c++/14/bits/basic_string.h ****    *  <a href="tables.html#68">optional sequence requirements</a>, only
  83:/usr/include/c++/14/bits/basic_string.h ****    *  @c push_back, @c at, and @c %array access are supported.
  84:/usr/include/c++/14/bits/basic_string.h ****    */
  85:/usr/include/c++/14/bits/basic_string.h ****   template<typename _CharT, typename _Traits, typename _Alloc>
  86:/usr/include/c++/14/bits/basic_string.h ****     class basic_string
  87:/usr/include/c++/14/bits/basic_string.h ****     {
  88:/usr/include/c++/14/bits/basic_string.h **** #if __cplusplus >= 202002L
  89:/usr/include/c++/14/bits/basic_string.h ****       static_assert(is_same_v<_CharT, typename _Traits::char_type>);
  90:/usr/include/c++/14/bits/basic_string.h ****       static_assert(is_same_v<_CharT, typename _Alloc::value_type>);
  91:/usr/include/c++/14/bits/basic_string.h ****       using _Char_alloc_type = _Alloc;
  92:/usr/include/c++/14/bits/basic_string.h **** #else
  93:/usr/include/c++/14/bits/basic_string.h ****       typedef typename __gnu_cxx::__alloc_traits<_Alloc>::template
  94:/usr/include/c++/14/bits/basic_string.h **** 	rebind<_CharT>::other _Char_alloc_type;
  95:/usr/include/c++/14/bits/basic_string.h **** #endif
  96:/usr/include/c++/14/bits/basic_string.h **** 
  97:/usr/include/c++/14/bits/basic_string.h ****       typedef __gnu_cxx::__alloc_traits<_Char_alloc_type> _Alloc_traits;
  98:/usr/include/c++/14/bits/basic_string.h **** 
  99:/usr/include/c++/14/bits/basic_string.h ****       // Types:
 100:/usr/include/c++/14/bits/basic_string.h ****     public:
 101:/usr/include/c++/14/bits/basic_string.h ****       typedef _Traits					traits_type;
 102:/usr/include/c++/14/bits/basic_string.h ****       typedef typename _Traits::char_type		value_type;
 103:/usr/include/c++/14/bits/basic_string.h ****       typedef _Char_alloc_type				allocator_type;
 104:/usr/include/c++/14/bits/basic_string.h ****       typedef typename _Alloc_traits::size_type		size_type;
 105:/usr/include/c++/14/bits/basic_string.h ****       typedef typename _Alloc_traits::difference_type	difference_type;
 106:/usr/include/c++/14/bits/basic_string.h ****       typedef typename _Alloc_traits::reference		reference;
 107:/usr/include/c++/14/bits/basic_string.h ****       typedef typename _Alloc_traits::const_reference	const_reference;
 108:/usr/include/c++/14/bits/basic_string.h ****       typedef typename _Alloc_traits::pointer		pointer;
GAS LISTING linobj/Ch02_03.s 			page 10


 109:/usr/include/c++/14/bits/basic_string.h ****       typedef typename _Alloc_traits::const_pointer	const_pointer;
 110:/usr/include/c++/14/bits/basic_string.h ****       typedef __gnu_cxx::__normal_iterator<pointer, basic_string>  iterator;
 111:/usr/include/c++/14/bits/basic_string.h ****       typedef __gnu_cxx::__normal_iterator<const_pointer, basic_string>
 112:/usr/include/c++/14/bits/basic_string.h **** 							const_iterator;
 113:/usr/include/c++/14/bits/basic_string.h ****       typedef std::reverse_iterator<const_iterator>	const_reverse_iterator;
 114:/usr/include/c++/14/bits/basic_string.h ****       typedef std::reverse_iterator<iterator>		reverse_iterator;
 115:/usr/include/c++/14/bits/basic_string.h **** 
 116:/usr/include/c++/14/bits/basic_string.h ****       ///  Value returned by various member functions when they fail.
 117:/usr/include/c++/14/bits/basic_string.h ****       static const size_type	npos = static_cast<size_type>(-1);
 118:/usr/include/c++/14/bits/basic_string.h **** 
 119:/usr/include/c++/14/bits/basic_string.h ****     protected:
 120:/usr/include/c++/14/bits/basic_string.h ****       // type used for positions in insert, erase etc.
 121:/usr/include/c++/14/bits/basic_string.h **** #if __cplusplus < 201103L
 122:/usr/include/c++/14/bits/basic_string.h ****       typedef iterator __const_iterator;
 123:/usr/include/c++/14/bits/basic_string.h **** #else
 124:/usr/include/c++/14/bits/basic_string.h ****       typedef const_iterator __const_iterator;
 125:/usr/include/c++/14/bits/basic_string.h **** #endif
 126:/usr/include/c++/14/bits/basic_string.h **** 
 127:/usr/include/c++/14/bits/basic_string.h ****     private:
 128:/usr/include/c++/14/bits/basic_string.h ****       static _GLIBCXX20_CONSTEXPR pointer
 129:/usr/include/c++/14/bits/basic_string.h ****       _S_allocate(_Char_alloc_type& __a, size_type __n)
 130:/usr/include/c++/14/bits/basic_string.h ****       {
 131:/usr/include/c++/14/bits/basic_string.h **** 	pointer __p = _Alloc_traits::allocate(__a, __n);
 132:/usr/include/c++/14/bits/basic_string.h **** #if __glibcxx_constexpr_string >= 201907L
 133:/usr/include/c++/14/bits/basic_string.h **** 	// std::char_traits begins the lifetime of characters,
 134:/usr/include/c++/14/bits/basic_string.h **** 	// but custom traits might not, so do it here.
 135:/usr/include/c++/14/bits/basic_string.h **** 	if constexpr (!is_same_v<_Traits, char_traits<_CharT>>)
 136:/usr/include/c++/14/bits/basic_string.h **** 	  if (std::__is_constant_evaluated())
 137:/usr/include/c++/14/bits/basic_string.h **** 	    // Begin the lifetime of characters in allocated storage.
 138:/usr/include/c++/14/bits/basic_string.h **** 	    for (size_type __i = 0; __i < __n; ++__i)
 139:/usr/include/c++/14/bits/basic_string.h **** 	      std::construct_at(__builtin_addressof(__p[__i]));
 140:/usr/include/c++/14/bits/basic_string.h **** #endif
 141:/usr/include/c++/14/bits/basic_string.h **** 	return __p;
 142:/usr/include/c++/14/bits/basic_string.h ****       }
 143:/usr/include/c++/14/bits/basic_string.h **** 
 144:/usr/include/c++/14/bits/basic_string.h **** #if __cplusplus >= 201703L
 145:/usr/include/c++/14/bits/basic_string.h ****       // A helper type for avoiding boiler-plate.
 146:/usr/include/c++/14/bits/basic_string.h ****       typedef basic_string_view<_CharT, _Traits> __sv_type;
 147:/usr/include/c++/14/bits/basic_string.h **** 
 148:/usr/include/c++/14/bits/basic_string.h ****       template<typename _Tp, typename _Res>
 149:/usr/include/c++/14/bits/basic_string.h **** 	using _If_sv = enable_if_t<
 150:/usr/include/c++/14/bits/basic_string.h **** 	  __and_<is_convertible<const _Tp&, __sv_type>,
 151:/usr/include/c++/14/bits/basic_string.h **** 		 __not_<is_convertible<const _Tp*, const basic_string*>>,
 152:/usr/include/c++/14/bits/basic_string.h **** 		 __not_<is_convertible<const _Tp&, const _CharT*>>>::value,
 153:/usr/include/c++/14/bits/basic_string.h **** 	  _Res>;
 154:/usr/include/c++/14/bits/basic_string.h **** 
 155:/usr/include/c++/14/bits/basic_string.h ****       // Allows an implicit conversion to __sv_type.
 156:/usr/include/c++/14/bits/basic_string.h ****       _GLIBCXX20_CONSTEXPR
 157:/usr/include/c++/14/bits/basic_string.h ****       static __sv_type
 158:/usr/include/c++/14/bits/basic_string.h ****       _S_to_string_view(__sv_type __svt) noexcept
 159:/usr/include/c++/14/bits/basic_string.h ****       { return __svt; }
 160:/usr/include/c++/14/bits/basic_string.h **** 
 161:/usr/include/c++/14/bits/basic_string.h ****       // Wraps a string_view by explicit conversion and thus
 162:/usr/include/c++/14/bits/basic_string.h ****       // allows to add an internal constructor that does not
 163:/usr/include/c++/14/bits/basic_string.h ****       // participate in overload resolution when a string_view
 164:/usr/include/c++/14/bits/basic_string.h ****       // is provided.
 165:/usr/include/c++/14/bits/basic_string.h ****       struct __sv_wrapper
GAS LISTING linobj/Ch02_03.s 			page 11


 166:/usr/include/c++/14/bits/basic_string.h ****       {
 167:/usr/include/c++/14/bits/basic_string.h **** 	_GLIBCXX20_CONSTEXPR explicit
 168:/usr/include/c++/14/bits/basic_string.h **** 	__sv_wrapper(__sv_type __sv) noexcept : _M_sv(__sv) { }
 169:/usr/include/c++/14/bits/basic_string.h **** 
 170:/usr/include/c++/14/bits/basic_string.h **** 	__sv_type _M_sv;
 171:/usr/include/c++/14/bits/basic_string.h ****       };
 172:/usr/include/c++/14/bits/basic_string.h **** 
 173:/usr/include/c++/14/bits/basic_string.h ****       /**
 174:/usr/include/c++/14/bits/basic_string.h ****        *  @brief  Only internally used: Construct string from a string view
 175:/usr/include/c++/14/bits/basic_string.h ****        *          wrapper.
 176:/usr/include/c++/14/bits/basic_string.h ****        *  @param  __svw  string view wrapper.
 177:/usr/include/c++/14/bits/basic_string.h ****        *  @param  __a  Allocator to use.
 178:/usr/include/c++/14/bits/basic_string.h ****        */
 179:/usr/include/c++/14/bits/basic_string.h ****       _GLIBCXX20_CONSTEXPR
 180:/usr/include/c++/14/bits/basic_string.h ****       explicit
 181:/usr/include/c++/14/bits/basic_string.h ****       basic_string(__sv_wrapper __svw, const _Alloc& __a)
 182:/usr/include/c++/14/bits/basic_string.h ****       : basic_string(__svw._M_sv.data(), __svw._M_sv.size(), __a) { }
 183:/usr/include/c++/14/bits/basic_string.h **** #endif
 184:/usr/include/c++/14/bits/basic_string.h **** 
 185:/usr/include/c++/14/bits/basic_string.h ****       // Use empty-base optimization: http://www.cantrip.org/emptyopt.html
 186:/usr/include/c++/14/bits/basic_string.h ****       struct _Alloc_hider : allocator_type // TODO check __is_final
 187:/usr/include/c++/14/bits/basic_string.h ****       {
 188:/usr/include/c++/14/bits/basic_string.h **** #if __cplusplus < 201103L
 189:/usr/include/c++/14/bits/basic_string.h **** 	_Alloc_hider(pointer __dat, const _Alloc& __a = _Alloc())
 190:/usr/include/c++/14/bits/basic_string.h **** 	: allocator_type(__a), _M_p(__dat) { }
 191:/usr/include/c++/14/bits/basic_string.h **** #else
 192:/usr/include/c++/14/bits/basic_string.h **** 	_GLIBCXX20_CONSTEXPR
 193:/usr/include/c++/14/bits/basic_string.h **** 	_Alloc_hider(pointer __dat, const _Alloc& __a)
 194:/usr/include/c++/14/bits/basic_string.h **** 	: allocator_type(__a), _M_p(__dat) { }
 195:/usr/include/c++/14/bits/basic_string.h **** 
 196:/usr/include/c++/14/bits/basic_string.h **** 	_GLIBCXX20_CONSTEXPR
 197:/usr/include/c++/14/bits/basic_string.h **** 	_Alloc_hider(pointer __dat, _Alloc&& __a = _Alloc())
 198:/usr/include/c++/14/bits/basic_string.h **** 	: allocator_type(std::move(__a)), _M_p(__dat) { }
 199:/usr/include/c++/14/bits/basic_string.h **** #endif
 200:/usr/include/c++/14/bits/basic_string.h **** 
 201:/usr/include/c++/14/bits/basic_string.h **** 	pointer _M_p; // The actual data.
 202:/usr/include/c++/14/bits/basic_string.h ****       };
 203:/usr/include/c++/14/bits/basic_string.h **** 
 204:/usr/include/c++/14/bits/basic_string.h ****       _Alloc_hider	_M_dataplus;
 205:/usr/include/c++/14/bits/basic_string.h ****       size_type		_M_string_length;
 206:/usr/include/c++/14/bits/basic_string.h **** 
 207:/usr/include/c++/14/bits/basic_string.h ****       enum { _S_local_capacity = 15 / sizeof(_CharT) };
 208:/usr/include/c++/14/bits/basic_string.h **** 
 209:/usr/include/c++/14/bits/basic_string.h ****       union
 210:/usr/include/c++/14/bits/basic_string.h ****       {
 211:/usr/include/c++/14/bits/basic_string.h **** 	_CharT           _M_local_buf[_S_local_capacity + 1];
 212:/usr/include/c++/14/bits/basic_string.h **** 	size_type        _M_allocated_capacity;
 213:/usr/include/c++/14/bits/basic_string.h ****       };
 214:/usr/include/c++/14/bits/basic_string.h **** 
 215:/usr/include/c++/14/bits/basic_string.h ****       _GLIBCXX20_CONSTEXPR
 216:/usr/include/c++/14/bits/basic_string.h ****       void
 217:/usr/include/c++/14/bits/basic_string.h ****       _M_data(pointer __p)
 218:/usr/include/c++/14/bits/basic_string.h ****       { _M_dataplus._M_p = __p; }
 219:/usr/include/c++/14/bits/basic_string.h **** 
 220:/usr/include/c++/14/bits/basic_string.h ****       _GLIBCXX20_CONSTEXPR
 221:/usr/include/c++/14/bits/basic_string.h ****       void
 222:/usr/include/c++/14/bits/basic_string.h ****       _M_length(size_type __length)
GAS LISTING linobj/Ch02_03.s 			page 12


 223:/usr/include/c++/14/bits/basic_string.h ****       { _M_string_length = __length; }
 224:/usr/include/c++/14/bits/basic_string.h **** 
 225:/usr/include/c++/14/bits/basic_string.h ****       _GLIBCXX20_CONSTEXPR
 226:/usr/include/c++/14/bits/basic_string.h ****       pointer
 227:/usr/include/c++/14/bits/basic_string.h ****       _M_data() const
 228:/usr/include/c++/14/bits/basic_string.h ****       { return _M_dataplus._M_p; }
 229:/usr/include/c++/14/bits/basic_string.h **** 
 230:/usr/include/c++/14/bits/basic_string.h ****       _GLIBCXX20_CONSTEXPR
 231:/usr/include/c++/14/bits/basic_string.h ****       pointer
 232:/usr/include/c++/14/bits/basic_string.h ****       _M_local_data()
 233:/usr/include/c++/14/bits/basic_string.h ****       {
 234:/usr/include/c++/14/bits/basic_string.h **** #if __cplusplus >= 201103L
 235:/usr/include/c++/14/bits/basic_string.h **** 	return std::pointer_traits<pointer>::pointer_to(*_M_local_buf);
 236:/usr/include/c++/14/bits/basic_string.h **** #else
 237:/usr/include/c++/14/bits/basic_string.h **** 	return pointer(_M_local_buf);
 238:/usr/include/c++/14/bits/basic_string.h **** #endif
 239:/usr/include/c++/14/bits/basic_string.h ****       }
 240:/usr/include/c++/14/bits/basic_string.h **** 
 241:/usr/include/c++/14/bits/basic_string.h ****       _GLIBCXX20_CONSTEXPR
 242:/usr/include/c++/14/bits/basic_string.h ****       const_pointer
 243:/usr/include/c++/14/bits/basic_string.h ****       _M_local_data() const
 244:/usr/include/c++/14/bits/basic_string.h ****       {
 245:/usr/include/c++/14/bits/basic_string.h **** #if __cplusplus >= 201103L
 246:/usr/include/c++/14/bits/basic_string.h **** 	return std::pointer_traits<const_pointer>::pointer_to(*_M_local_buf);
 247:/usr/include/c++/14/bits/basic_string.h **** #else
 248:/usr/include/c++/14/bits/basic_string.h **** 	return const_pointer(_M_local_buf);
 249:/usr/include/c++/14/bits/basic_string.h **** #endif
 250:/usr/include/c++/14/bits/basic_string.h ****       }
 251:/usr/include/c++/14/bits/basic_string.h **** 
 252:/usr/include/c++/14/bits/basic_string.h ****       _GLIBCXX20_CONSTEXPR
 253:/usr/include/c++/14/bits/basic_string.h ****       void
 254:/usr/include/c++/14/bits/basic_string.h ****       _M_capacity(size_type __capacity)
 255:/usr/include/c++/14/bits/basic_string.h ****       { _M_allocated_capacity = __capacity; }
 256:/usr/include/c++/14/bits/basic_string.h **** 
 257:/usr/include/c++/14/bits/basic_string.h ****       _GLIBCXX20_CONSTEXPR
 258:/usr/include/c++/14/bits/basic_string.h ****       void
 259:/usr/include/c++/14/bits/basic_string.h ****       _M_set_length(size_type __n)
 260:/usr/include/c++/14/bits/basic_string.h ****       {
 261:/usr/include/c++/14/bits/basic_string.h **** 	_M_length(__n);
 262:/usr/include/c++/14/bits/basic_string.h **** 	traits_type::assign(_M_data()[__n], _CharT());
 263:/usr/include/c++/14/bits/basic_string.h ****       }
 264:/usr/include/c++/14/bits/basic_string.h **** 
 265:/usr/include/c++/14/bits/basic_string.h ****       _GLIBCXX20_CONSTEXPR
 266:/usr/include/c++/14/bits/basic_string.h ****       bool
 267:/usr/include/c++/14/bits/basic_string.h ****       _M_is_local() const
 268:/usr/include/c++/14/bits/basic_string.h ****       {
 269:/usr/include/c++/14/bits/basic_string.h **** 	if (_M_data() == _M_local_data())
 270:/usr/include/c++/14/bits/basic_string.h **** 	  {
 271:/usr/include/c++/14/bits/basic_string.h **** 	    if (_M_string_length > _S_local_capacity)
 272:/usr/include/c++/14/bits/basic_string.h **** 	      __builtin_unreachable();
 273:/usr/include/c++/14/bits/basic_string.h **** 	    return true;
 274:/usr/include/c++/14/bits/basic_string.h **** 	  }
 275:/usr/include/c++/14/bits/basic_string.h **** 	return false;
 276:/usr/include/c++/14/bits/basic_string.h ****       }
 277:/usr/include/c++/14/bits/basic_string.h **** 
 278:/usr/include/c++/14/bits/basic_string.h ****       // Create & Destroy
 279:/usr/include/c++/14/bits/basic_string.h ****       _GLIBCXX20_CONSTEXPR
GAS LISTING linobj/Ch02_03.s 			page 13


 280:/usr/include/c++/14/bits/basic_string.h ****       pointer
 281:/usr/include/c++/14/bits/basic_string.h ****       _M_create(size_type&, size_type);
 282:/usr/include/c++/14/bits/basic_string.h **** 
 283:/usr/include/c++/14/bits/basic_string.h ****       _GLIBCXX20_CONSTEXPR
 284:/usr/include/c++/14/bits/basic_string.h ****       void
 285:/usr/include/c++/14/bits/basic_string.h ****       _M_dispose()
 286:/usr/include/c++/14/bits/basic_string.h ****       {
 287:/usr/include/c++/14/bits/basic_string.h **** 	if (!_M_is_local())
 288:/usr/include/c++/14/bits/basic_string.h **** 	  _M_destroy(_M_allocated_capacity);
 289:/usr/include/c++/14/bits/basic_string.h ****       }
 290:/usr/include/c++/14/bits/basic_string.h **** 
 291:/usr/include/c++/14/bits/basic_string.h ****       _GLIBCXX20_CONSTEXPR
 292:/usr/include/c++/14/bits/basic_string.h ****       void
 293:/usr/include/c++/14/bits/basic_string.h ****       _M_destroy(size_type __size) throw()
 294:/usr/include/c++/14/bits/basic_string.h ****       { _Alloc_traits::deallocate(_M_get_allocator(), _M_data(), __size + 1); }
 295:/usr/include/c++/14/bits/basic_string.h **** 
 296:/usr/include/c++/14/bits/basic_string.h **** #if __cplusplus < 201103L || defined _GLIBCXX_DEFINING_STRING_INSTANTIATIONS
 297:/usr/include/c++/14/bits/basic_string.h ****       // _M_construct_aux is used to implement the 21.3.1 para 15 which
 298:/usr/include/c++/14/bits/basic_string.h ****       // requires special behaviour if _InIterator is an integral type
 299:/usr/include/c++/14/bits/basic_string.h ****       template<typename _InIterator>
 300:/usr/include/c++/14/bits/basic_string.h ****         void
 301:/usr/include/c++/14/bits/basic_string.h ****         _M_construct_aux(_InIterator __beg, _InIterator __end,
 302:/usr/include/c++/14/bits/basic_string.h **** 			 std::__false_type)
 303:/usr/include/c++/14/bits/basic_string.h **** 	{
 304:/usr/include/c++/14/bits/basic_string.h ****           typedef typename iterator_traits<_InIterator>::iterator_category _Tag;
 305:/usr/include/c++/14/bits/basic_string.h ****           _M_construct(__beg, __end, _Tag());
 306:/usr/include/c++/14/bits/basic_string.h **** 	}
 307:/usr/include/c++/14/bits/basic_string.h **** 
 308:/usr/include/c++/14/bits/basic_string.h ****       // _GLIBCXX_RESOLVE_LIB_DEFECTS
 309:/usr/include/c++/14/bits/basic_string.h ****       // 438. Ambiguity in the "do the right thing" clause
 310:/usr/include/c++/14/bits/basic_string.h ****       template<typename _Integer>
 311:/usr/include/c++/14/bits/basic_string.h ****         void
 312:/usr/include/c++/14/bits/basic_string.h ****         _M_construct_aux(_Integer __beg, _Integer __end, std::__true_type)
 313:/usr/include/c++/14/bits/basic_string.h **** 	{ _M_construct_aux_2(static_cast<size_type>(__beg), __end); }
 314:/usr/include/c++/14/bits/basic_string.h **** 
 315:/usr/include/c++/14/bits/basic_string.h ****       void
 316:/usr/include/c++/14/bits/basic_string.h ****       _M_construct_aux_2(size_type __req, _CharT __c)
 317:/usr/include/c++/14/bits/basic_string.h ****       { _M_construct(__req, __c); }
 318:/usr/include/c++/14/bits/basic_string.h **** #endif
 319:/usr/include/c++/14/bits/basic_string.h **** 
 320:/usr/include/c++/14/bits/basic_string.h ****       // For Input Iterators, used in istreambuf_iterators, etc.
 321:/usr/include/c++/14/bits/basic_string.h ****       template<typename _InIterator>
 322:/usr/include/c++/14/bits/basic_string.h **** 	_GLIBCXX20_CONSTEXPR
 323:/usr/include/c++/14/bits/basic_string.h ****         void
 324:/usr/include/c++/14/bits/basic_string.h ****         _M_construct(_InIterator __beg, _InIterator __end,
 325:/usr/include/c++/14/bits/basic_string.h **** 		     std::input_iterator_tag);
 326:/usr/include/c++/14/bits/basic_string.h **** 
 327:/usr/include/c++/14/bits/basic_string.h ****       // For forward_iterators up to random_access_iterators, used for
 328:/usr/include/c++/14/bits/basic_string.h ****       // string::iterator, _CharT*, etc.
 329:/usr/include/c++/14/bits/basic_string.h ****       template<typename _FwdIterator>
 330:/usr/include/c++/14/bits/basic_string.h **** 	_GLIBCXX20_CONSTEXPR
 331:/usr/include/c++/14/bits/basic_string.h ****         void
 332:/usr/include/c++/14/bits/basic_string.h ****         _M_construct(_FwdIterator __beg, _FwdIterator __end,
 333:/usr/include/c++/14/bits/basic_string.h **** 		     std::forward_iterator_tag);
 334:/usr/include/c++/14/bits/basic_string.h **** 
 335:/usr/include/c++/14/bits/basic_string.h ****       _GLIBCXX20_CONSTEXPR
 336:/usr/include/c++/14/bits/basic_string.h ****       void
GAS LISTING linobj/Ch02_03.s 			page 14


 337:/usr/include/c++/14/bits/basic_string.h ****       _M_construct(size_type __req, _CharT __c);
 338:/usr/include/c++/14/bits/basic_string.h **** 
 339:/usr/include/c++/14/bits/basic_string.h ****       _GLIBCXX20_CONSTEXPR
 340:/usr/include/c++/14/bits/basic_string.h ****       allocator_type&
 341:/usr/include/c++/14/bits/basic_string.h ****       _M_get_allocator()
 342:/usr/include/c++/14/bits/basic_string.h ****       { return _M_dataplus; }
 343:/usr/include/c++/14/bits/basic_string.h **** 
 344:/usr/include/c++/14/bits/basic_string.h ****       _GLIBCXX20_CONSTEXPR
 345:/usr/include/c++/14/bits/basic_string.h ****       const allocator_type&
 346:/usr/include/c++/14/bits/basic_string.h ****       _M_get_allocator() const
 347:/usr/include/c++/14/bits/basic_string.h ****       { return _M_dataplus; }
 348:/usr/include/c++/14/bits/basic_string.h **** 
 349:/usr/include/c++/14/bits/basic_string.h ****       // Ensure that _M_local_buf is the active member of the union.
 350:/usr/include/c++/14/bits/basic_string.h ****       __attribute__((__always_inline__))
 351:/usr/include/c++/14/bits/basic_string.h ****       _GLIBCXX14_CONSTEXPR
 352:/usr/include/c++/14/bits/basic_string.h ****       void
 353:/usr/include/c++/14/bits/basic_string.h ****       _M_init_local_buf() _GLIBCXX_NOEXCEPT
 354:/usr/include/c++/14/bits/basic_string.h ****       {
 355:/usr/include/c++/14/bits/basic_string.h **** #if __glibcxx_is_constant_evaluated
 356:/usr/include/c++/14/bits/basic_string.h **** 	if (std::is_constant_evaluated())
 357:/usr/include/c++/14/bits/basic_string.h **** 	  for (size_type __i = 0; __i <= _S_local_capacity; ++__i)
 358:/usr/include/c++/14/bits/basic_string.h **** 	    _M_local_buf[__i] = _CharT();
 359:/usr/include/c++/14/bits/basic_string.h **** #endif
 360:/usr/include/c++/14/bits/basic_string.h ****       }
 361:/usr/include/c++/14/bits/basic_string.h **** 
 362:/usr/include/c++/14/bits/basic_string.h ****       __attribute__((__always_inline__))
 363:/usr/include/c++/14/bits/basic_string.h ****       _GLIBCXX14_CONSTEXPR
 364:/usr/include/c++/14/bits/basic_string.h ****       pointer
 365:/usr/include/c++/14/bits/basic_string.h ****       _M_use_local_data() _GLIBCXX_NOEXCEPT
 366:/usr/include/c++/14/bits/basic_string.h ****       {
 367:/usr/include/c++/14/bits/basic_string.h **** #if __cpp_lib_is_constant_evaluated
 368:/usr/include/c++/14/bits/basic_string.h **** 	_M_init_local_buf();
 369:/usr/include/c++/14/bits/basic_string.h **** #endif
 370:/usr/include/c++/14/bits/basic_string.h **** 	return _M_local_data();
 371:/usr/include/c++/14/bits/basic_string.h ****       }
 372:/usr/include/c++/14/bits/basic_string.h **** 
 373:/usr/include/c++/14/bits/basic_string.h ****     private:
 374:/usr/include/c++/14/bits/basic_string.h **** 
 375:/usr/include/c++/14/bits/basic_string.h **** #ifdef _GLIBCXX_DISAMBIGUATE_REPLACE_INST
 376:/usr/include/c++/14/bits/basic_string.h ****       // The explicit instantiations in misc-inst.cc require this due to
 377:/usr/include/c++/14/bits/basic_string.h ****       // https://gcc.gnu.org/bugzilla/show_bug.cgi?id=64063
 378:/usr/include/c++/14/bits/basic_string.h ****       template<typename _Tp, bool _Requires =
 379:/usr/include/c++/14/bits/basic_string.h **** 	       !__are_same<_Tp, _CharT*>::__value
 380:/usr/include/c++/14/bits/basic_string.h **** 	       && !__are_same<_Tp, const _CharT*>::__value
 381:/usr/include/c++/14/bits/basic_string.h **** 	       && !__are_same<_Tp, iterator>::__value
 382:/usr/include/c++/14/bits/basic_string.h **** 	       && !__are_same<_Tp, const_iterator>::__value>
 383:/usr/include/c++/14/bits/basic_string.h **** 	struct __enable_if_not_native_iterator
 384:/usr/include/c++/14/bits/basic_string.h **** 	{ typedef basic_string& __type; };
 385:/usr/include/c++/14/bits/basic_string.h ****       template<typename _Tp>
 386:/usr/include/c++/14/bits/basic_string.h **** 	struct __enable_if_not_native_iterator<_Tp, false> { };
 387:/usr/include/c++/14/bits/basic_string.h **** #endif
 388:/usr/include/c++/14/bits/basic_string.h **** 
 389:/usr/include/c++/14/bits/basic_string.h ****       _GLIBCXX20_CONSTEXPR
 390:/usr/include/c++/14/bits/basic_string.h ****       size_type
 391:/usr/include/c++/14/bits/basic_string.h ****       _M_check(size_type __pos, const char* __s) const
 392:/usr/include/c++/14/bits/basic_string.h ****       {
 393:/usr/include/c++/14/bits/basic_string.h **** 	if (__pos > this->size())
GAS LISTING linobj/Ch02_03.s 			page 15


 394:/usr/include/c++/14/bits/basic_string.h **** 	  __throw_out_of_range_fmt(__N("%s: __pos (which is %zu) > "
 395:/usr/include/c++/14/bits/basic_string.h **** 				       "this->size() (which is %zu)"),
 396:/usr/include/c++/14/bits/basic_string.h **** 				   __s, __pos, this->size());
 397:/usr/include/c++/14/bits/basic_string.h **** 	return __pos;
 398:/usr/include/c++/14/bits/basic_string.h ****       }
 399:/usr/include/c++/14/bits/basic_string.h **** 
 400:/usr/include/c++/14/bits/basic_string.h ****       _GLIBCXX20_CONSTEXPR
 401:/usr/include/c++/14/bits/basic_string.h ****       void
 402:/usr/include/c++/14/bits/basic_string.h ****       _M_check_length(size_type __n1, size_type __n2, const char* __s) const
 403:/usr/include/c++/14/bits/basic_string.h ****       {
 404:/usr/include/c++/14/bits/basic_string.h **** 	if (this->max_size() - (this->size() - __n1) < __n2)
 405:/usr/include/c++/14/bits/basic_string.h **** 	  __throw_length_error(__N(__s));
 406:/usr/include/c++/14/bits/basic_string.h ****       }
 407:/usr/include/c++/14/bits/basic_string.h **** 
 408:/usr/include/c++/14/bits/basic_string.h **** 
 409:/usr/include/c++/14/bits/basic_string.h ****       // NB: _M_limit doesn't check for a bad __pos value.
 410:/usr/include/c++/14/bits/basic_string.h ****       _GLIBCXX20_CONSTEXPR
 411:/usr/include/c++/14/bits/basic_string.h ****       size_type
 412:/usr/include/c++/14/bits/basic_string.h ****       _M_limit(size_type __pos, size_type __off) const _GLIBCXX_NOEXCEPT
 413:/usr/include/c++/14/bits/basic_string.h ****       {
 414:/usr/include/c++/14/bits/basic_string.h **** 	const bool __testoff =  __off < this->size() - __pos;
 415:/usr/include/c++/14/bits/basic_string.h **** 	return __testoff ? __off : this->size() - __pos;
 416:/usr/include/c++/14/bits/basic_string.h ****       }
 417:/usr/include/c++/14/bits/basic_string.h **** 
 418:/usr/include/c++/14/bits/basic_string.h ****       // True if _Rep and source do not overlap.
 419:/usr/include/c++/14/bits/basic_string.h ****       bool
 420:/usr/include/c++/14/bits/basic_string.h ****       _M_disjunct(const _CharT* __s) const _GLIBCXX_NOEXCEPT
 421:/usr/include/c++/14/bits/basic_string.h ****       {
 422:/usr/include/c++/14/bits/basic_string.h **** 	return (less<const _CharT*>()(__s, _M_data())
 423:/usr/include/c++/14/bits/basic_string.h **** 		|| less<const _CharT*>()(_M_data() + this->size(), __s));
 424:/usr/include/c++/14/bits/basic_string.h ****       }
 425:/usr/include/c++/14/bits/basic_string.h **** 
 426:/usr/include/c++/14/bits/basic_string.h ****       // When __n = 1 way faster than the general multichar
 427:/usr/include/c++/14/bits/basic_string.h ****       // traits_type::copy/move/assign.
 428:/usr/include/c++/14/bits/basic_string.h ****       _GLIBCXX20_CONSTEXPR
 429:/usr/include/c++/14/bits/basic_string.h ****       static void
 430:/usr/include/c++/14/bits/basic_string.h ****       _S_copy(_CharT* __d, const _CharT* __s, size_type __n)
 431:/usr/include/c++/14/bits/basic_string.h ****       {
 432:/usr/include/c++/14/bits/basic_string.h **** 	if (__n == 1)
 433:/usr/include/c++/14/bits/basic_string.h **** 	  traits_type::assign(*__d, *__s);
 434:/usr/include/c++/14/bits/basic_string.h **** 	else
 435:/usr/include/c++/14/bits/basic_string.h **** 	  traits_type::copy(__d, __s, __n);
 436:/usr/include/c++/14/bits/basic_string.h ****       }
 437:/usr/include/c++/14/bits/basic_string.h **** 
 438:/usr/include/c++/14/bits/basic_string.h ****       _GLIBCXX20_CONSTEXPR
 439:/usr/include/c++/14/bits/basic_string.h ****       static void
 440:/usr/include/c++/14/bits/basic_string.h ****       _S_move(_CharT* __d, const _CharT* __s, size_type __n)
 441:/usr/include/c++/14/bits/basic_string.h ****       {
 442:/usr/include/c++/14/bits/basic_string.h **** 	if (__n == 1)
 443:/usr/include/c++/14/bits/basic_string.h **** 	  traits_type::assign(*__d, *__s);
 444:/usr/include/c++/14/bits/basic_string.h **** 	else
 445:/usr/include/c++/14/bits/basic_string.h **** 	  traits_type::move(__d, __s, __n);
 446:/usr/include/c++/14/bits/basic_string.h ****       }
 447:/usr/include/c++/14/bits/basic_string.h **** 
 448:/usr/include/c++/14/bits/basic_string.h ****       _GLIBCXX20_CONSTEXPR
 449:/usr/include/c++/14/bits/basic_string.h ****       static void
 450:/usr/include/c++/14/bits/basic_string.h ****       _S_assign(_CharT* __d, size_type __n, _CharT __c)
GAS LISTING linobj/Ch02_03.s 			page 16


 451:/usr/include/c++/14/bits/basic_string.h ****       {
 452:/usr/include/c++/14/bits/basic_string.h **** 	if (__n == 1)
 453:/usr/include/c++/14/bits/basic_string.h **** 	  traits_type::assign(*__d, __c);
 454:/usr/include/c++/14/bits/basic_string.h **** 	else
 455:/usr/include/c++/14/bits/basic_string.h **** 	  traits_type::assign(__d, __n, __c);
 456:/usr/include/c++/14/bits/basic_string.h ****       }
 457:/usr/include/c++/14/bits/basic_string.h **** 
 458:/usr/include/c++/14/bits/basic_string.h ****       // _S_copy_chars is a separate template to permit specialization
 459:/usr/include/c++/14/bits/basic_string.h ****       // to optimize for the common case of pointers as iterators.
 460:/usr/include/c++/14/bits/basic_string.h ****       template<class _Iterator>
 461:/usr/include/c++/14/bits/basic_string.h **** 	_GLIBCXX20_CONSTEXPR
 462:/usr/include/c++/14/bits/basic_string.h ****         static void
 463:/usr/include/c++/14/bits/basic_string.h ****         _S_copy_chars(_CharT* __p, _Iterator __k1, _Iterator __k2)
 464:/usr/include/c++/14/bits/basic_string.h ****         {
 465:/usr/include/c++/14/bits/basic_string.h **** 	  for (; __k1 != __k2; ++__k1, (void)++__p)
 466:/usr/include/c++/14/bits/basic_string.h **** 	    traits_type::assign(*__p, *__k1); // These types are off.
 467:/usr/include/c++/14/bits/basic_string.h **** 	}
 468:/usr/include/c++/14/bits/basic_string.h **** 
 469:/usr/include/c++/14/bits/basic_string.h ****       _GLIBCXX20_CONSTEXPR
 470:/usr/include/c++/14/bits/basic_string.h ****       static void
 471:/usr/include/c++/14/bits/basic_string.h ****       _S_copy_chars(_CharT* __p, iterator __k1, iterator __k2) _GLIBCXX_NOEXCEPT
 472:/usr/include/c++/14/bits/basic_string.h ****       { _S_copy_chars(__p, __k1.base(), __k2.base()); }
 473:/usr/include/c++/14/bits/basic_string.h **** 
 474:/usr/include/c++/14/bits/basic_string.h ****       _GLIBCXX20_CONSTEXPR
 475:/usr/include/c++/14/bits/basic_string.h ****       static void
 476:/usr/include/c++/14/bits/basic_string.h ****       _S_copy_chars(_CharT* __p, const_iterator __k1, const_iterator __k2)
 477:/usr/include/c++/14/bits/basic_string.h ****       _GLIBCXX_NOEXCEPT
 478:/usr/include/c++/14/bits/basic_string.h ****       { _S_copy_chars(__p, __k1.base(), __k2.base()); }
 479:/usr/include/c++/14/bits/basic_string.h **** 
 480:/usr/include/c++/14/bits/basic_string.h ****       _GLIBCXX20_CONSTEXPR
 481:/usr/include/c++/14/bits/basic_string.h ****       static void
 482:/usr/include/c++/14/bits/basic_string.h ****       _S_copy_chars(_CharT* __p, _CharT* __k1, _CharT* __k2) _GLIBCXX_NOEXCEPT
 483:/usr/include/c++/14/bits/basic_string.h ****       { _S_copy(__p, __k1, __k2 - __k1); }
 484:/usr/include/c++/14/bits/basic_string.h **** 
 485:/usr/include/c++/14/bits/basic_string.h ****       _GLIBCXX20_CONSTEXPR
 486:/usr/include/c++/14/bits/basic_string.h ****       static void
 487:/usr/include/c++/14/bits/basic_string.h ****       _S_copy_chars(_CharT* __p, const _CharT* __k1, const _CharT* __k2)
 488:/usr/include/c++/14/bits/basic_string.h ****       _GLIBCXX_NOEXCEPT
 489:/usr/include/c++/14/bits/basic_string.h ****       { _S_copy(__p, __k1, __k2 - __k1); }
 490:/usr/include/c++/14/bits/basic_string.h **** 
 491:/usr/include/c++/14/bits/basic_string.h ****       _GLIBCXX20_CONSTEXPR
 492:/usr/include/c++/14/bits/basic_string.h ****       static int
 493:/usr/include/c++/14/bits/basic_string.h ****       _S_compare(size_type __n1, size_type __n2) _GLIBCXX_NOEXCEPT
 494:/usr/include/c++/14/bits/basic_string.h ****       {
 495:/usr/include/c++/14/bits/basic_string.h **** 	const difference_type __d = difference_type(__n1 - __n2);
 496:/usr/include/c++/14/bits/basic_string.h **** 
 497:/usr/include/c++/14/bits/basic_string.h **** 	if (__d > __gnu_cxx::__numeric_traits<int>::__max)
 498:/usr/include/c++/14/bits/basic_string.h **** 	  return __gnu_cxx::__numeric_traits<int>::__max;
 499:/usr/include/c++/14/bits/basic_string.h **** 	else if (__d < __gnu_cxx::__numeric_traits<int>::__min)
 500:/usr/include/c++/14/bits/basic_string.h **** 	  return __gnu_cxx::__numeric_traits<int>::__min;
 501:/usr/include/c++/14/bits/basic_string.h **** 	else
 502:/usr/include/c++/14/bits/basic_string.h **** 	  return int(__d);
 503:/usr/include/c++/14/bits/basic_string.h ****       }
 504:/usr/include/c++/14/bits/basic_string.h **** 
 505:/usr/include/c++/14/bits/basic_string.h ****       _GLIBCXX20_CONSTEXPR
 506:/usr/include/c++/14/bits/basic_string.h ****       void
 507:/usr/include/c++/14/bits/basic_string.h ****       _M_assign(const basic_string&);
GAS LISTING linobj/Ch02_03.s 			page 17


 508:/usr/include/c++/14/bits/basic_string.h **** 
 509:/usr/include/c++/14/bits/basic_string.h ****       _GLIBCXX20_CONSTEXPR
 510:/usr/include/c++/14/bits/basic_string.h ****       void
 511:/usr/include/c++/14/bits/basic_string.h ****       _M_mutate(size_type __pos, size_type __len1, const _CharT* __s,
 512:/usr/include/c++/14/bits/basic_string.h **** 		size_type __len2);
 513:/usr/include/c++/14/bits/basic_string.h **** 
 514:/usr/include/c++/14/bits/basic_string.h ****       _GLIBCXX20_CONSTEXPR
 515:/usr/include/c++/14/bits/basic_string.h ****       void
 516:/usr/include/c++/14/bits/basic_string.h ****       _M_erase(size_type __pos, size_type __n);
 517:/usr/include/c++/14/bits/basic_string.h **** 
 518:/usr/include/c++/14/bits/basic_string.h ****     public:
 519:/usr/include/c++/14/bits/basic_string.h ****       // Construct/copy/destroy:
 520:/usr/include/c++/14/bits/basic_string.h ****       // NB: We overload ctors in some cases instead of using default
 521:/usr/include/c++/14/bits/basic_string.h ****       // arguments, per 17.4.4.4 para. 2 item 2.
 522:/usr/include/c++/14/bits/basic_string.h **** 
 523:/usr/include/c++/14/bits/basic_string.h ****       /**
 524:/usr/include/c++/14/bits/basic_string.h ****        *  @brief  Default constructor creates an empty string.
 525:/usr/include/c++/14/bits/basic_string.h ****        */
 526:/usr/include/c++/14/bits/basic_string.h ****       _GLIBCXX20_CONSTEXPR
 527:/usr/include/c++/14/bits/basic_string.h ****       basic_string()
 528:/usr/include/c++/14/bits/basic_string.h ****       _GLIBCXX_NOEXCEPT_IF(is_nothrow_default_constructible<_Alloc>::value)
 529:/usr/include/c++/14/bits/basic_string.h ****       : _M_dataplus(_M_local_data())
 530:/usr/include/c++/14/bits/basic_string.h ****       {
 531:/usr/include/c++/14/bits/basic_string.h **** 	_M_init_local_buf();
 532:/usr/include/c++/14/bits/basic_string.h **** 	_M_set_length(0);
 533:/usr/include/c++/14/bits/basic_string.h ****       }
 534:/usr/include/c++/14/bits/basic_string.h **** 
 535:/usr/include/c++/14/bits/basic_string.h ****       /**
 536:/usr/include/c++/14/bits/basic_string.h ****        *  @brief  Construct an empty string using allocator @a a.
 537:/usr/include/c++/14/bits/basic_string.h ****        */
 538:/usr/include/c++/14/bits/basic_string.h ****       _GLIBCXX20_CONSTEXPR
 539:/usr/include/c++/14/bits/basic_string.h ****       explicit
 540:/usr/include/c++/14/bits/basic_string.h ****       basic_string(const _Alloc& __a) _GLIBCXX_NOEXCEPT
 541:/usr/include/c++/14/bits/basic_string.h ****       : _M_dataplus(_M_local_data(), __a)
 542:/usr/include/c++/14/bits/basic_string.h ****       {
 543:/usr/include/c++/14/bits/basic_string.h **** 	_M_init_local_buf();
 544:/usr/include/c++/14/bits/basic_string.h **** 	_M_set_length(0);
 545:/usr/include/c++/14/bits/basic_string.h ****       }
 546:/usr/include/c++/14/bits/basic_string.h **** 
 547:/usr/include/c++/14/bits/basic_string.h ****       /**
 548:/usr/include/c++/14/bits/basic_string.h ****        *  @brief  Construct string with copy of value of @a __str.
 549:/usr/include/c++/14/bits/basic_string.h ****        *  @param  __str  Source string.
 550:/usr/include/c++/14/bits/basic_string.h ****        */
 551:/usr/include/c++/14/bits/basic_string.h ****       _GLIBCXX20_CONSTEXPR
 552:/usr/include/c++/14/bits/basic_string.h ****       basic_string(const basic_string& __str)
 553:/usr/include/c++/14/bits/basic_string.h ****       : _M_dataplus(_M_local_data(),
 554:/usr/include/c++/14/bits/basic_string.h **** 		    _Alloc_traits::_S_select_on_copy(__str._M_get_allocator()))
 555:/usr/include/c++/14/bits/basic_string.h ****       {
 556:/usr/include/c++/14/bits/basic_string.h **** 	_M_construct(__str._M_data(), __str._M_data() + __str.length(),
 557:/usr/include/c++/14/bits/basic_string.h **** 		     std::forward_iterator_tag());
 558:/usr/include/c++/14/bits/basic_string.h ****       }
 559:/usr/include/c++/14/bits/basic_string.h **** 
 560:/usr/include/c++/14/bits/basic_string.h ****       // _GLIBCXX_RESOLVE_LIB_DEFECTS
 561:/usr/include/c++/14/bits/basic_string.h ****       // 2583. no way to supply an allocator for basic_string(str, pos)
 562:/usr/include/c++/14/bits/basic_string.h ****       /**
 563:/usr/include/c++/14/bits/basic_string.h ****        *  @brief  Construct string as copy of a substring.
 564:/usr/include/c++/14/bits/basic_string.h ****        *  @param  __str  Source string.
GAS LISTING linobj/Ch02_03.s 			page 18


 565:/usr/include/c++/14/bits/basic_string.h ****        *  @param  __pos  Index of first character to copy from.
 566:/usr/include/c++/14/bits/basic_string.h ****        *  @param  __a  Allocator to use.
 567:/usr/include/c++/14/bits/basic_string.h ****        */
 568:/usr/include/c++/14/bits/basic_string.h ****       _GLIBCXX20_CONSTEXPR
 569:/usr/include/c++/14/bits/basic_string.h ****       basic_string(const basic_string& __str, size_type __pos,
 570:/usr/include/c++/14/bits/basic_string.h **** 		   const _Alloc& __a = _Alloc())
 571:/usr/include/c++/14/bits/basic_string.h ****       : _M_dataplus(_M_local_data(), __a)
 572:/usr/include/c++/14/bits/basic_string.h ****       {
 573:/usr/include/c++/14/bits/basic_string.h **** 	const _CharT* __start = __str._M_data()
 574:/usr/include/c++/14/bits/basic_string.h **** 	  + __str._M_check(__pos, "basic_string::basic_string");
 575:/usr/include/c++/14/bits/basic_string.h **** 	_M_construct(__start, __start + __str._M_limit(__pos, npos),
 576:/usr/include/c++/14/bits/basic_string.h **** 		     std::forward_iterator_tag());
 577:/usr/include/c++/14/bits/basic_string.h ****       }
 578:/usr/include/c++/14/bits/basic_string.h **** 
 579:/usr/include/c++/14/bits/basic_string.h ****       /**
 580:/usr/include/c++/14/bits/basic_string.h ****        *  @brief  Construct string as copy of a substring.
 581:/usr/include/c++/14/bits/basic_string.h ****        *  @param  __str  Source string.
 582:/usr/include/c++/14/bits/basic_string.h ****        *  @param  __pos  Index of first character to copy from.
 583:/usr/include/c++/14/bits/basic_string.h ****        *  @param  __n  Number of characters to copy.
 584:/usr/include/c++/14/bits/basic_string.h ****        */
 585:/usr/include/c++/14/bits/basic_string.h ****       _GLIBCXX20_CONSTEXPR
 586:/usr/include/c++/14/bits/basic_string.h ****       basic_string(const basic_string& __str, size_type __pos,
 587:/usr/include/c++/14/bits/basic_string.h **** 		   size_type __n)
 588:/usr/include/c++/14/bits/basic_string.h ****       : _M_dataplus(_M_local_data())
 589:/usr/include/c++/14/bits/basic_string.h ****       {
 590:/usr/include/c++/14/bits/basic_string.h **** 	const _CharT* __start = __str._M_data()
 591:/usr/include/c++/14/bits/basic_string.h **** 	  + __str._M_check(__pos, "basic_string::basic_string");
 592:/usr/include/c++/14/bits/basic_string.h **** 	_M_construct(__start, __start + __str._M_limit(__pos, __n),
 593:/usr/include/c++/14/bits/basic_string.h **** 		     std::forward_iterator_tag());
 594:/usr/include/c++/14/bits/basic_string.h ****       }
 595:/usr/include/c++/14/bits/basic_string.h **** 
 596:/usr/include/c++/14/bits/basic_string.h ****       /**
 597:/usr/include/c++/14/bits/basic_string.h ****        *  @brief  Construct string as copy of a substring.
 598:/usr/include/c++/14/bits/basic_string.h ****        *  @param  __str  Source string.
 599:/usr/include/c++/14/bits/basic_string.h ****        *  @param  __pos  Index of first character to copy from.
 600:/usr/include/c++/14/bits/basic_string.h ****        *  @param  __n  Number of characters to copy.
 601:/usr/include/c++/14/bits/basic_string.h ****        *  @param  __a  Allocator to use.
 602:/usr/include/c++/14/bits/basic_string.h ****        */
 603:/usr/include/c++/14/bits/basic_string.h ****       _GLIBCXX20_CONSTEXPR
 604:/usr/include/c++/14/bits/basic_string.h ****       basic_string(const basic_string& __str, size_type __pos,
 605:/usr/include/c++/14/bits/basic_string.h **** 		   size_type __n, const _Alloc& __a)
 606:/usr/include/c++/14/bits/basic_string.h ****       : _M_dataplus(_M_local_data(), __a)
 607:/usr/include/c++/14/bits/basic_string.h ****       {
 608:/usr/include/c++/14/bits/basic_string.h **** 	const _CharT* __start
 609:/usr/include/c++/14/bits/basic_string.h **** 	  = __str._M_data() + __str._M_check(__pos, "string::string");
 610:/usr/include/c++/14/bits/basic_string.h **** 	_M_construct(__start, __start + __str._M_limit(__pos, __n),
 611:/usr/include/c++/14/bits/basic_string.h **** 		     std::forward_iterator_tag());
 612:/usr/include/c++/14/bits/basic_string.h ****       }
 613:/usr/include/c++/14/bits/basic_string.h **** 
 614:/usr/include/c++/14/bits/basic_string.h ****       /**
 615:/usr/include/c++/14/bits/basic_string.h ****        *  @brief  Construct string initialized by a character %array.
 616:/usr/include/c++/14/bits/basic_string.h ****        *  @param  __s  Source character %array.
 617:/usr/include/c++/14/bits/basic_string.h ****        *  @param  __n  Number of characters to copy.
 618:/usr/include/c++/14/bits/basic_string.h ****        *  @param  __a  Allocator to use (default is default allocator).
 619:/usr/include/c++/14/bits/basic_string.h ****        *
 620:/usr/include/c++/14/bits/basic_string.h ****        *  NB: @a __s must have at least @a __n characters, &apos;\\0&apos;
 621:/usr/include/c++/14/bits/basic_string.h ****        *  has no special meaning.
GAS LISTING linobj/Ch02_03.s 			page 19


 622:/usr/include/c++/14/bits/basic_string.h ****        */
 623:/usr/include/c++/14/bits/basic_string.h ****       _GLIBCXX20_CONSTEXPR
 624:/usr/include/c++/14/bits/basic_string.h ****       basic_string(const _CharT* __s, size_type __n,
 625:/usr/include/c++/14/bits/basic_string.h **** 		   const _Alloc& __a = _Alloc())
 626:/usr/include/c++/14/bits/basic_string.h ****       : _M_dataplus(_M_local_data(), __a)
 627:/usr/include/c++/14/bits/basic_string.h ****       {
 628:/usr/include/c++/14/bits/basic_string.h **** 	// NB: Not required, but considered best practice.
 629:/usr/include/c++/14/bits/basic_string.h **** 	if (__s == 0 && __n > 0)
 630:/usr/include/c++/14/bits/basic_string.h **** 	  std::__throw_logic_error(__N("basic_string: "
 631:/usr/include/c++/14/bits/basic_string.h **** 				       "construction from null is not valid"));
 632:/usr/include/c++/14/bits/basic_string.h **** 	_M_construct(__s, __s + __n, std::forward_iterator_tag());
 633:/usr/include/c++/14/bits/basic_string.h ****       }
 634:/usr/include/c++/14/bits/basic_string.h **** 
 635:/usr/include/c++/14/bits/basic_string.h ****       /**
 636:/usr/include/c++/14/bits/basic_string.h ****        *  @brief  Construct string as copy of a C string.
 637:/usr/include/c++/14/bits/basic_string.h ****        *  @param  __s  Source C string.
 638:/usr/include/c++/14/bits/basic_string.h ****        *  @param  __a  Allocator to use (default is default allocator).
 639:/usr/include/c++/14/bits/basic_string.h ****        */
 640:/usr/include/c++/14/bits/basic_string.h **** #if __cpp_deduction_guides && ! defined _GLIBCXX_DEFINING_STRING_INSTANTIATIONS
 641:/usr/include/c++/14/bits/basic_string.h ****       // _GLIBCXX_RESOLVE_LIB_DEFECTS
 642:/usr/include/c++/14/bits/basic_string.h ****       // 3076. basic_string CTAD ambiguity
 643:/usr/include/c++/14/bits/basic_string.h ****       template<typename = _RequireAllocator<_Alloc>>
 644:/usr/include/c++/14/bits/basic_string.h **** #endif
 645:/usr/include/c++/14/bits/basic_string.h ****       _GLIBCXX20_CONSTEXPR
 646:/usr/include/c++/14/bits/basic_string.h ****       basic_string(const _CharT* __s, const _Alloc& __a = _Alloc())
 647:/usr/include/c++/14/bits/basic_string.h ****       : _M_dataplus(_M_local_data(), __a)
 648:/usr/include/c++/14/bits/basic_string.h ****       {
 649:/usr/include/c++/14/bits/basic_string.h **** 	// NB: Not required, but considered best practice.
 650:/usr/include/c++/14/bits/basic_string.h **** 	if (__s == 0)
 651:/usr/include/c++/14/bits/basic_string.h **** 	  std::__throw_logic_error(__N("basic_string: "
 652:/usr/include/c++/14/bits/basic_string.h **** 				       "construction from null is not valid"));
 653:/usr/include/c++/14/bits/basic_string.h **** 	const _CharT* __end = __s + traits_type::length(__s);
 654:/usr/include/c++/14/bits/basic_string.h **** 	_M_construct(__s, __end, forward_iterator_tag());
 655:/usr/include/c++/14/bits/basic_string.h ****       }
 656:/usr/include/c++/14/bits/basic_string.h **** 
 657:/usr/include/c++/14/bits/basic_string.h ****       /**
 658:/usr/include/c++/14/bits/basic_string.h ****        *  @brief  Construct string as multiple characters.
 659:/usr/include/c++/14/bits/basic_string.h ****        *  @param  __n  Number of characters.
 660:/usr/include/c++/14/bits/basic_string.h ****        *  @param  __c  Character to use.
 661:/usr/include/c++/14/bits/basic_string.h ****        *  @param  __a  Allocator to use (default is default allocator).
 662:/usr/include/c++/14/bits/basic_string.h ****        */
 663:/usr/include/c++/14/bits/basic_string.h **** #if __cpp_deduction_guides && ! defined _GLIBCXX_DEFINING_STRING_INSTANTIATIONS
 664:/usr/include/c++/14/bits/basic_string.h ****       // _GLIBCXX_RESOLVE_LIB_DEFECTS
 665:/usr/include/c++/14/bits/basic_string.h ****       // 3076. basic_string CTAD ambiguity
 666:/usr/include/c++/14/bits/basic_string.h ****       template<typename = _RequireAllocator<_Alloc>>
 667:/usr/include/c++/14/bits/basic_string.h **** #endif
 668:/usr/include/c++/14/bits/basic_string.h ****       _GLIBCXX20_CONSTEXPR
 669:/usr/include/c++/14/bits/basic_string.h ****       basic_string(size_type __n, _CharT __c, const _Alloc& __a = _Alloc())
 670:/usr/include/c++/14/bits/basic_string.h ****       : _M_dataplus(_M_local_data(), __a)
 671:/usr/include/c++/14/bits/basic_string.h ****       { _M_construct(__n, __c); }
  68              		.loc 4 671 21 view .LVU7
  69 0002 BA2D0000 		movl	$45, %edx
  69      00
  70 0007 BE4B0000 		movl	$75, %esi
  70      00
  71              	.LBE687:
  72              	.LBE686:
GAS LISTING linobj/Ch02_03.s 			page 20


  73              	.LBE685:
  15:Ch02_03.cpp   ****     const char nl = '\n';
  74              		.loc 1 15 1 view .LVU8
  75 000c 4156     		pushq	%r14
  76              		.cfi_def_cfa_offset 24
  77              		.cfi_offset 14, -24
  78 000e 4155     		pushq	%r13
  79              		.cfi_def_cfa_offset 32
  80              		.cfi_offset 13, -32
  81 0010 4154     		pushq	%r12
  82              		.cfi_def_cfa_offset 40
  83              		.cfi_offset 12, -40
  84 0012 55       		pushq	%rbp
  85              		.cfi_def_cfa_offset 48
  86              		.cfi_offset 6, -48
  87 0013 53       		pushq	%rbx
  88              		.cfi_def_cfa_offset 56
  89              		.cfi_offset 3, -56
  90 0014 4883EC78 		subq	$120, %rsp
  91              		.cfi_def_cfa_offset 176
  92              	.LVL1:
  93              	.LBB701:
  94              	.LBI685:
 669:/usr/include/c++/14/bits/basic_string.h ****       : _M_dataplus(_M_local_data(), __a)
  95              		.loc 4 669 7 is_stmt 1 view .LVU9
  96              	.LBB699:
  97              	.LBB697:
  98              	.LBB688:
  99              	.LBI688:
 232:/usr/include/c++/14/bits/basic_string.h ****       {
 100              		.loc 4 232 7 view .LVU10
 232:/usr/include/c++/14/bits/basic_string.h ****       {
 101              		.loc 4 232 7 is_stmt 0 view .LVU11
 102              	.LBE688:
 103              	.LBB689:
 104              	.LBI689:
 193:/usr/include/c++/14/bits/basic_string.h **** 	: allocator_type(__a), _M_p(__dat) { }
 105              		.loc 4 193 2 is_stmt 1 view .LVU12
 106              	.LBB690:
 107              	.LBB691:
 108              	.LBB692:
 109              	.LBI692:
 162:/usr/include/c++/14/bits/allocator.h **** 
 163:/usr/include/c++/14/bits/allocator.h ****       __attribute__((__always_inline__))
 164:/usr/include/c++/14/bits/allocator.h ****       _GLIBCXX20_CONSTEXPR
 165:/usr/include/c++/14/bits/allocator.h ****       allocator(const allocator& __a) _GLIBCXX_NOTHROW
 110              		.loc 2 165 7 view .LVU13
 111              	.LBB693:
 112              	.LBI693:
  89:/usr/include/c++/14/bits/new_allocator.h **** 
  90:/usr/include/c++/14/bits/new_allocator.h ****       __attribute__((__always_inline__))
  91:/usr/include/c++/14/bits/new_allocator.h ****       _GLIBCXX20_CONSTEXPR
  92:/usr/include/c++/14/bits/new_allocator.h ****       __new_allocator(const __new_allocator&) _GLIBCXX_USE_NOEXCEPT { }
 113              		.loc 3 92 7 view .LVU14
 114              		.loc 3 92 7 is_stmt 0 view .LVU15
 115              	.LBE693:
 116              	.LBE692:
GAS LISTING linobj/Ch02_03.s 			page 21


 194:/usr/include/c++/14/bits/basic_string.h **** 
 117              		.loc 4 194 25 discriminator 1 view .LVU16
 118 0018 4C8D7424 		leaq	48(%rsp), %r14
 118      30
 119              	.LVL2:
 194:/usr/include/c++/14/bits/basic_string.h **** 
 120              		.loc 4 194 25 discriminator 1 view .LVU17
 121 001d 488D4424 		leaq	64(%rsp), %rax
 121      40
 122              	.LVL3:
 194:/usr/include/c++/14/bits/basic_string.h **** 
 123              		.loc 4 194 25 discriminator 1 view .LVU18
 124              	.LBE691:
 125              	.LBE690:
 126              	.LBE689:
 127              		.loc 4 671 21 view .LVU19
 128 0022 4C89F7   		movq	%r14, %rdi
 129              	.LBB696:
 130              	.LBB695:
 131              	.LBB694:
 194:/usr/include/c++/14/bits/basic_string.h **** 
 132              		.loc 4 194 25 discriminator 1 view .LVU20
 133 0025 48894424 		movq	%rax, 48(%rsp)
 133      30
 134              	.LVL4:
 194:/usr/include/c++/14/bits/basic_string.h **** 
 135              		.loc 4 194 25 discriminator 1 view .LVU21
 136              	.LBE694:
 137              	.LBE695:
 138              	.LBE696:
 139              	.LBE697:
 140              	.LBE699:
 141              	.LBE701:
 142              	.LBB702:
 143              	.LBB703:
  18:Ch02_03.cpp   **** 
  19:Ch02_03.cpp   ****     MulI16();
  20:Ch02_03.cpp   ****     std::cout << nl << sep << nl;
  21:Ch02_03.cpp   ****     MulI32a();
  22:Ch02_03.cpp   ****     std::cout << nl << sep << nl;
  23:Ch02_03.cpp   ****     MulI32b();
  24:Ch02_03.cpp   ****     return 0;
  25:Ch02_03.cpp   **** }
  26:Ch02_03.cpp   **** 
  27:Ch02_03.cpp   **** static void MulI16(void)
  28:Ch02_03.cpp   **** {
  29:Ch02_03.cpp   ****     const char nl = '\n';
  30:Ch02_03.cpp   ****     XmmVal a, b, c[2];
  31:Ch02_03.cpp   **** 
  32:Ch02_03.cpp   ****     a.m_I16[0] = 10;        b.m_I16[0] = -5;
  33:Ch02_03.cpp   ****     a.m_I16[1] = 3000;      b.m_I16[1] = 100;
  34:Ch02_03.cpp   ****     a.m_I16[2] = -2000;     b.m_I16[2] = -9000;
  35:Ch02_03.cpp   ****     a.m_I16[3] = 42;        b.m_I16[3] = 1000;
  36:Ch02_03.cpp   ****     a.m_I16[4] = -5000;     b.m_I16[4] = 25000;
  37:Ch02_03.cpp   ****     a.m_I16[5] = 8;         b.m_I16[5] = 16384;
  38:Ch02_03.cpp   ****     a.m_I16[6] = 10000;     b.m_I16[6] = 3500;
  39:Ch02_03.cpp   ****     a.m_I16[7] = -60;       b.m_I16[7] = 6000;
GAS LISTING linobj/Ch02_03.s 			page 22


  40:Ch02_03.cpp   **** 
  41:Ch02_03.cpp   ****     MulI16_Iavx(c, &a, &b);
 144              		.loc 1 41 16 view .LVU22
 145 002a 4C8D6C24 		leaq	32(%rsp), %r13
 145      20
 146 002f 4C8D6424 		leaq	16(%rsp), %r12
 146      10
 147              	.LEHB0:
 148              	.LBE703:
 149              	.LBE702:
 150              	.LBB795:
 151              	.LBB700:
 152              	.LBB698:
 153              		.loc 4 671 21 view .LVU23
 154 0034 E8000000 		call	_ZNSt7__cxx1112basic_stringIcSt11char_traitsIcESaIcEE12_M_constructEmc
 154      00
 155              	.LVL5:
 156              	.LEHE0:
 157              		.loc 4 671 21 view .LVU24
 158              	.LBE698:
 159              	.LBE700:
 160              	.LBE795:
 161              	.LBB796:
 162              	.LBI796:
 166:/usr/include/c++/14/bits/allocator.h ****       : __allocator_base<_Tp>(__a) { }
 167:/usr/include/c++/14/bits/allocator.h **** 
 168:/usr/include/c++/14/bits/allocator.h **** #if __cplusplus >= 201103L
 169:/usr/include/c++/14/bits/allocator.h ****       // Avoid implicit deprecation.
 170:/usr/include/c++/14/bits/allocator.h ****       allocator& operator=(const allocator&) = default;
 171:/usr/include/c++/14/bits/allocator.h **** #endif
 172:/usr/include/c++/14/bits/allocator.h **** 
 173:/usr/include/c++/14/bits/allocator.h ****       template<typename _Tp1>
 174:/usr/include/c++/14/bits/allocator.h **** 	__attribute__((__always_inline__))
 175:/usr/include/c++/14/bits/allocator.h **** 	_GLIBCXX20_CONSTEXPR
 176:/usr/include/c++/14/bits/allocator.h **** 	allocator(const allocator<_Tp1>&) _GLIBCXX_NOTHROW { }
 177:/usr/include/c++/14/bits/allocator.h **** 
 178:/usr/include/c++/14/bits/allocator.h ****       __attribute__((__always_inline__))
 179:/usr/include/c++/14/bits/allocator.h **** #if __cpp_constexpr_dynamic_alloc
 180:/usr/include/c++/14/bits/allocator.h ****       constexpr
 181:/usr/include/c++/14/bits/allocator.h **** #endif
 182:/usr/include/c++/14/bits/allocator.h ****       ~allocator() _GLIBCXX_NOTHROW { }
 163              		.loc 2 182 7 is_stmt 1 view .LVU25
 164              	.LBB797:
 165              	.LBI797:
  93:/usr/include/c++/14/bits/new_allocator.h **** 
  94:/usr/include/c++/14/bits/new_allocator.h ****       template<typename _Tp1>
  95:/usr/include/c++/14/bits/new_allocator.h **** 	__attribute__((__always_inline__))
  96:/usr/include/c++/14/bits/new_allocator.h **** 	_GLIBCXX20_CONSTEXPR
  97:/usr/include/c++/14/bits/new_allocator.h **** 	__new_allocator(const __new_allocator<_Tp1>&) _GLIBCXX_USE_NOEXCEPT { }
  98:/usr/include/c++/14/bits/new_allocator.h **** 
  99:/usr/include/c++/14/bits/new_allocator.h **** #if __cplusplus >= 201103L
 100:/usr/include/c++/14/bits/new_allocator.h ****       __new_allocator& operator=(const __new_allocator&) = default;
 101:/usr/include/c++/14/bits/new_allocator.h **** #endif
 102:/usr/include/c++/14/bits/new_allocator.h **** 
 103:/usr/include/c++/14/bits/new_allocator.h **** #if __cplusplus <= 201703L
 104:/usr/include/c++/14/bits/new_allocator.h ****       ~__new_allocator() _GLIBCXX_USE_NOEXCEPT { }
 166              		.loc 3 104 7 view .LVU26
GAS LISTING linobj/Ch02_03.s 			page 23


 167              		.loc 3 104 7 is_stmt 0 view .LVU27
 168              	.LBE797:
 169              	.LBE796:
  19:Ch02_03.cpp   ****     std::cout << nl << sep << nl;
 170              		.loc 1 19 5 is_stmt 1 view .LVU28
 171              	.LBB798:
 172              	.LBI702:
  27:Ch02_03.cpp   **** {
 173              		.loc 1 27 13 view .LVU29
 174              	.LBB793:
  29:Ch02_03.cpp   ****     XmmVal a, b, c[2];
 175              		.loc 1 29 5 view .LVU30
  30:Ch02_03.cpp   **** 
 176              		.loc 1 30 5 view .LVU31
  32:Ch02_03.cpp   ****     a.m_I16[1] = 3000;      b.m_I16[1] = 100;
 177              		.loc 1 32 5 view .LVU32
  32:Ch02_03.cpp   ****     a.m_I16[1] = 3000;      b.m_I16[1] = 100;
 178              		.loc 1 32 22 view .LVU33
  33:Ch02_03.cpp   ****     a.m_I16[2] = -2000;     b.m_I16[2] = -9000;
 179              		.loc 1 33 5 view .LVU34
  33:Ch02_03.cpp   ****     a.m_I16[2] = -2000;     b.m_I16[2] = -9000;
 180              		.loc 1 33 24 view .LVU35
  34:Ch02_03.cpp   ****     a.m_I16[3] = 42;        b.m_I16[3] = 1000;
 181              		.loc 1 34 5 view .LVU36
  34:Ch02_03.cpp   ****     a.m_I16[3] = 42;        b.m_I16[3] = 1000;
 182              		.loc 1 34 25 view .LVU37
  35:Ch02_03.cpp   ****     a.m_I16[4] = -5000;     b.m_I16[4] = 25000;
 183              		.loc 1 35 5 view .LVU38
  35:Ch02_03.cpp   ****     a.m_I16[4] = -5000;     b.m_I16[4] = 25000;
 184              		.loc 1 35 22 view .LVU39
  36:Ch02_03.cpp   ****     a.m_I16[5] = 8;         b.m_I16[5] = 16384;
 185              		.loc 1 36 5 view .LVU40
  36:Ch02_03.cpp   ****     a.m_I16[5] = 8;         b.m_I16[5] = 16384;
 186              		.loc 1 36 25 view .LVU41
  37:Ch02_03.cpp   ****     a.m_I16[6] = 10000;     b.m_I16[6] = 3500;
 187              		.loc 1 37 5 view .LVU42
  37:Ch02_03.cpp   ****     a.m_I16[6] = 10000;     b.m_I16[6] = 3500;
 188              		.loc 1 37 21 view .LVU43
  38:Ch02_03.cpp   ****     a.m_I16[7] = -60;       b.m_I16[7] = 6000;
 189              		.loc 1 38 5 view .LVU44
  38:Ch02_03.cpp   ****     a.m_I16[7] = -60;       b.m_I16[7] = 6000;
 190              		.loc 1 38 25 view .LVU45
  39:Ch02_03.cpp   **** 
 191              		.loc 1 39 5 view .LVU46
 192              		.loc 1 41 16 is_stmt 0 view .LVU47
 193 0039 488D6C24 		leaq	80(%rsp), %rbp
 193      50
 194 003e 4C89EA   		movq	%r13, %rdx
 195 0041 4C89E6   		movq	%r12, %rsi
  32:Ch02_03.cpp   ****     a.m_I16[1] = 3000;      b.m_I16[1] = 100;
 196              		.loc 1 32 16 view .LVU48
 197 0044 C5F96F05 		vmovdqa	.LC0(%rip), %xmm0
 197      00000000 
 198              		.loc 1 41 16 view .LVU49
 199 004c 4889EF   		movq	%rbp, %rdi
  32:Ch02_03.cpp   ****     a.m_I16[1] = 3000;      b.m_I16[1] = 100;
 200              		.loc 1 32 16 view .LVU50
GAS LISTING linobj/Ch02_03.s 			page 24


 201 004f C5F97F44 		vmovdqa	%xmm0, 16(%rsp)
 201      2410
  39:Ch02_03.cpp   **** 
 202              		.loc 1 39 23 is_stmt 1 view .LVU51
  32:Ch02_03.cpp   ****     a.m_I16[1] = 3000;      b.m_I16[1] = 100;
 203              		.loc 1 32 33 is_stmt 0 view .LVU52
 204 0055 C5F96F05 		vmovdqa	.LC1(%rip), %xmm0
 204      00000000 
 205 005d C5F97F44 		vmovdqa	%xmm0, 32(%rsp)
 205      2420
 206              		.loc 1 41 5 is_stmt 1 view .LVU53
 207              	.LEHB1:
 208              		.loc 1 41 16 is_stmt 0 view .LVU54
 209 0063 E8000000 		call	_Z11MulI16_IavxP6XmmValPKS_S2_
 209      00
 210              	.LVL6:
  42:Ch02_03.cpp   **** 
  43:Ch02_03.cpp   ****     std::cout << "\nResults for MulI16_Iavx\n";
 211              		.loc 1 43 5 is_stmt 1 view .LVU55
 212              	.LBB704:
 213              	.LBI704:
 214              		.file 5 "/usr/include/c++/14/ostream"
   1:/usr/include/c++/14/ostream **** // Output streams -*- C++ -*-
   2:/usr/include/c++/14/ostream **** 
   3:/usr/include/c++/14/ostream **** // Copyright (C) 1997-2024 Free Software Foundation, Inc.
   4:/usr/include/c++/14/ostream **** //
   5:/usr/include/c++/14/ostream **** // This file is part of the GNU ISO C++ Library.  This library is free
   6:/usr/include/c++/14/ostream **** // software; you can redistribute it and/or modify it under the
   7:/usr/include/c++/14/ostream **** // terms of the GNU General Public License as published by the
   8:/usr/include/c++/14/ostream **** // Free Software Foundation; either version 3, or (at your option)
   9:/usr/include/c++/14/ostream **** // any later version.
  10:/usr/include/c++/14/ostream **** 
  11:/usr/include/c++/14/ostream **** // This library is distributed in the hope that it will be useful,
  12:/usr/include/c++/14/ostream **** // but WITHOUT ANY WARRANTY; without even the implied warranty of
  13:/usr/include/c++/14/ostream **** // MERCHANTABILITY or FITNESS FOR A PARTICULAR PURPOSE.  See the
  14:/usr/include/c++/14/ostream **** // GNU General Public License for more details.
  15:/usr/include/c++/14/ostream **** 
  16:/usr/include/c++/14/ostream **** // Under Section 7 of GPL version 3, you are granted additional
  17:/usr/include/c++/14/ostream **** // permissions described in the GCC Runtime Library Exception, version
  18:/usr/include/c++/14/ostream **** // 3.1, as published by the Free Software Foundation.
  19:/usr/include/c++/14/ostream **** 
  20:/usr/include/c++/14/ostream **** // You should have received a copy of the GNU General Public License and
  21:/usr/include/c++/14/ostream **** // a copy of the GCC Runtime Library Exception along with this program;
  22:/usr/include/c++/14/ostream **** // see the files COPYING3 and COPYING.RUNTIME respectively.  If not, see
  23:/usr/include/c++/14/ostream **** // <http://www.gnu.org/licenses/>.
  24:/usr/include/c++/14/ostream **** 
  25:/usr/include/c++/14/ostream **** /** @file include/ostream
  26:/usr/include/c++/14/ostream ****  *  This is a Standard C++ Library header.
  27:/usr/include/c++/14/ostream ****  */
  28:/usr/include/c++/14/ostream **** 
  29:/usr/include/c++/14/ostream **** //
  30:/usr/include/c++/14/ostream **** // ISO C++ 14882: 27.6.2  Output streams
  31:/usr/include/c++/14/ostream **** //
  32:/usr/include/c++/14/ostream **** 
  33:/usr/include/c++/14/ostream **** #ifndef _GLIBCXX_OSTREAM
  34:/usr/include/c++/14/ostream **** #define _GLIBCXX_OSTREAM 1
  35:/usr/include/c++/14/ostream **** 
GAS LISTING linobj/Ch02_03.s 			page 25


  36:/usr/include/c++/14/ostream **** #pragma GCC system_header
  37:/usr/include/c++/14/ostream **** 
  38:/usr/include/c++/14/ostream **** #include <bits/requires_hosted.h> // iostreams
  39:/usr/include/c++/14/ostream **** 
  40:/usr/include/c++/14/ostream **** #include <ios>
  41:/usr/include/c++/14/ostream **** #include <bits/ostream_insert.h>
  42:/usr/include/c++/14/ostream **** #if __cplusplus > 202002L
  43:/usr/include/c++/14/ostream **** # include <format>
  44:/usr/include/c++/14/ostream **** #endif
  45:/usr/include/c++/14/ostream **** 
  46:/usr/include/c++/14/ostream **** # define __glibcxx_want_print
  47:/usr/include/c++/14/ostream **** #include <bits/version.h> // __glibcxx_syncbuf
  48:/usr/include/c++/14/ostream **** 
  49:/usr/include/c++/14/ostream **** namespace std _GLIBCXX_VISIBILITY(default)
  50:/usr/include/c++/14/ostream **** {
  51:/usr/include/c++/14/ostream **** _GLIBCXX_BEGIN_NAMESPACE_VERSION
  52:/usr/include/c++/14/ostream **** 
  53:/usr/include/c++/14/ostream ****   /**
  54:/usr/include/c++/14/ostream ****    *  @brief  Template class basic_ostream.
  55:/usr/include/c++/14/ostream ****    *  @ingroup io
  56:/usr/include/c++/14/ostream ****    *
  57:/usr/include/c++/14/ostream ****    *  @tparam _CharT  Type of character stream.
  58:/usr/include/c++/14/ostream ****    *  @tparam _Traits  Traits for character type, defaults to
  59:/usr/include/c++/14/ostream ****    *                   char_traits<_CharT>.
  60:/usr/include/c++/14/ostream ****    *
  61:/usr/include/c++/14/ostream ****    *  This is the base class for all output streams.  It provides text
  62:/usr/include/c++/14/ostream ****    *  formatting of all builtin types, and communicates with any class
  63:/usr/include/c++/14/ostream ****    *  derived from basic_streambuf to do the actual output.
  64:/usr/include/c++/14/ostream ****   */
  65:/usr/include/c++/14/ostream ****   template<typename _CharT, typename _Traits>
  66:/usr/include/c++/14/ostream ****     class basic_ostream : virtual public basic_ios<_CharT, _Traits>
  67:/usr/include/c++/14/ostream ****     {
  68:/usr/include/c++/14/ostream ****     public:
  69:/usr/include/c++/14/ostream ****       // Types (inherited from basic_ios):
  70:/usr/include/c++/14/ostream ****       typedef _CharT			 		char_type;
  71:/usr/include/c++/14/ostream ****       typedef typename _Traits::int_type 		int_type;
  72:/usr/include/c++/14/ostream ****       typedef typename _Traits::pos_type 		pos_type;
  73:/usr/include/c++/14/ostream ****       typedef typename _Traits::off_type 		off_type;
  74:/usr/include/c++/14/ostream ****       typedef _Traits			 		traits_type;
  75:/usr/include/c++/14/ostream **** 
  76:/usr/include/c++/14/ostream ****       // Non-standard Types:
  77:/usr/include/c++/14/ostream ****       typedef basic_streambuf<_CharT, _Traits> 		__streambuf_type;
  78:/usr/include/c++/14/ostream ****       typedef basic_ios<_CharT, _Traits>		__ios_type;
  79:/usr/include/c++/14/ostream ****       typedef basic_ostream<_CharT, _Traits>		__ostream_type;
  80:/usr/include/c++/14/ostream ****       typedef num_put<_CharT, ostreambuf_iterator<_CharT, _Traits> >
  81:/usr/include/c++/14/ostream ****       							__num_put_type;
  82:/usr/include/c++/14/ostream ****       typedef ctype<_CharT>	      			__ctype_type;
  83:/usr/include/c++/14/ostream **** 
  84:/usr/include/c++/14/ostream ****       /**
  85:/usr/include/c++/14/ostream ****        *  @brief  Base constructor.
  86:/usr/include/c++/14/ostream ****        *
  87:/usr/include/c++/14/ostream ****        *  This ctor is almost never called by the user directly, rather from
  88:/usr/include/c++/14/ostream ****        *  derived classes' initialization lists, which pass a pointer to
  89:/usr/include/c++/14/ostream ****        *  their own stream buffer.
  90:/usr/include/c++/14/ostream ****       */
  91:/usr/include/c++/14/ostream ****       explicit
  92:/usr/include/c++/14/ostream ****       basic_ostream(__streambuf_type* __sb)
GAS LISTING linobj/Ch02_03.s 			page 26


  93:/usr/include/c++/14/ostream ****       { this->init(__sb); }
  94:/usr/include/c++/14/ostream **** 
  95:/usr/include/c++/14/ostream ****       /**
  96:/usr/include/c++/14/ostream ****        *  @brief  Base destructor.
  97:/usr/include/c++/14/ostream ****        *
  98:/usr/include/c++/14/ostream ****        *  This does very little apart from providing a virtual base dtor.
  99:/usr/include/c++/14/ostream ****       */
 100:/usr/include/c++/14/ostream ****       virtual
 101:/usr/include/c++/14/ostream ****       ~basic_ostream() { }
 102:/usr/include/c++/14/ostream **** 
 103:/usr/include/c++/14/ostream ****       /// Safe prefix/suffix operations.
 104:/usr/include/c++/14/ostream ****       class sentry;
 105:/usr/include/c++/14/ostream ****       friend class sentry;
 106:/usr/include/c++/14/ostream **** 
 107:/usr/include/c++/14/ostream ****       ///@{
 108:/usr/include/c++/14/ostream ****       /**
 109:/usr/include/c++/14/ostream ****        *  @brief  Interface for manipulators.
 110:/usr/include/c++/14/ostream ****        *
 111:/usr/include/c++/14/ostream ****        *  Manipulators such as @c std::endl and @c std::hex use these
 112:/usr/include/c++/14/ostream ****        *  functions in constructs like "std::cout << std::endl".  For more
 113:/usr/include/c++/14/ostream ****        *  information, see the iomanip header.
 114:/usr/include/c++/14/ostream ****       */
 115:/usr/include/c++/14/ostream ****       __ostream_type&
 116:/usr/include/c++/14/ostream ****       operator<<(__ostream_type& (*__pf)(__ostream_type&))
 117:/usr/include/c++/14/ostream ****       {
 118:/usr/include/c++/14/ostream **** 	// _GLIBCXX_RESOLVE_LIB_DEFECTS
 119:/usr/include/c++/14/ostream **** 	// DR 60. What is a formatted input function?
 120:/usr/include/c++/14/ostream **** 	// The inserters for manipulators are *not* formatted output functions.
 121:/usr/include/c++/14/ostream **** 	return __pf(*this);
 122:/usr/include/c++/14/ostream ****       }
 123:/usr/include/c++/14/ostream **** 
 124:/usr/include/c++/14/ostream ****       __ostream_type&
 125:/usr/include/c++/14/ostream ****       operator<<(__ios_type& (*__pf)(__ios_type&))
 126:/usr/include/c++/14/ostream ****       {
 127:/usr/include/c++/14/ostream **** 	// _GLIBCXX_RESOLVE_LIB_DEFECTS
 128:/usr/include/c++/14/ostream **** 	// DR 60. What is a formatted input function?
 129:/usr/include/c++/14/ostream **** 	// The inserters for manipulators are *not* formatted output functions.
 130:/usr/include/c++/14/ostream **** 	__pf(*this);
 131:/usr/include/c++/14/ostream **** 	return *this;
 132:/usr/include/c++/14/ostream ****       }
 133:/usr/include/c++/14/ostream **** 
 134:/usr/include/c++/14/ostream ****       __ostream_type&
 135:/usr/include/c++/14/ostream ****       operator<<(ios_base& (*__pf) (ios_base&))
 136:/usr/include/c++/14/ostream ****       {
 137:/usr/include/c++/14/ostream **** 	// _GLIBCXX_RESOLVE_LIB_DEFECTS
 138:/usr/include/c++/14/ostream **** 	// DR 60. What is a formatted input function?
 139:/usr/include/c++/14/ostream **** 	// The inserters for manipulators are *not* formatted output functions.
 140:/usr/include/c++/14/ostream **** 	__pf(*this);
 141:/usr/include/c++/14/ostream **** 	return *this;
 142:/usr/include/c++/14/ostream ****       }
 143:/usr/include/c++/14/ostream ****       ///@}
 144:/usr/include/c++/14/ostream **** 
 145:/usr/include/c++/14/ostream ****       ///@{
 146:/usr/include/c++/14/ostream ****       /**
 147:/usr/include/c++/14/ostream ****        *  @name Inserters
 148:/usr/include/c++/14/ostream ****        *
 149:/usr/include/c++/14/ostream ****        *  All the @c operator<< functions (aka <em>formatted output
GAS LISTING linobj/Ch02_03.s 			page 27


 150:/usr/include/c++/14/ostream ****        *  functions</em>) have some common behavior.  Each starts by
 151:/usr/include/c++/14/ostream ****        *  constructing a temporary object of type std::basic_ostream::sentry.
 152:/usr/include/c++/14/ostream ****        *  This can have several effects, concluding with the setting of a
 153:/usr/include/c++/14/ostream ****        *  status flag; see the sentry documentation for more.
 154:/usr/include/c++/14/ostream ****        *
 155:/usr/include/c++/14/ostream ****        *  If the sentry status is good, the function tries to generate
 156:/usr/include/c++/14/ostream ****        *  whatever data is appropriate for the type of the argument.
 157:/usr/include/c++/14/ostream ****        *
 158:/usr/include/c++/14/ostream ****        *  If an exception is thrown during insertion, ios_base::badbit
 159:/usr/include/c++/14/ostream ****        *  will be turned on in the stream's error state without causing an
 160:/usr/include/c++/14/ostream ****        *  ios_base::failure to be thrown.  The original exception will then
 161:/usr/include/c++/14/ostream ****        *  be rethrown.
 162:/usr/include/c++/14/ostream ****       */
 163:/usr/include/c++/14/ostream **** 
 164:/usr/include/c++/14/ostream ****       ///@{
 165:/usr/include/c++/14/ostream ****       /**
 166:/usr/include/c++/14/ostream ****        *  @brief Integer arithmetic inserters
 167:/usr/include/c++/14/ostream ****        *  @param  __n A variable of builtin integral type.
 168:/usr/include/c++/14/ostream ****        *  @return  @c *this if successful
 169:/usr/include/c++/14/ostream ****        *
 170:/usr/include/c++/14/ostream ****        *  These functions use the stream's current locale (specifically, the
 171:/usr/include/c++/14/ostream ****        *  @c num_get facet) to perform numeric formatting.
 172:/usr/include/c++/14/ostream ****       */
 173:/usr/include/c++/14/ostream ****       __ostream_type&
 174:/usr/include/c++/14/ostream ****       operator<<(long __n)
 175:/usr/include/c++/14/ostream ****       { return _M_insert(__n); }
 176:/usr/include/c++/14/ostream **** 
 177:/usr/include/c++/14/ostream ****       __ostream_type&
 178:/usr/include/c++/14/ostream ****       operator<<(unsigned long __n)
 179:/usr/include/c++/14/ostream ****       { return _M_insert(__n); }
 180:/usr/include/c++/14/ostream **** 
 181:/usr/include/c++/14/ostream ****       __ostream_type&
 182:/usr/include/c++/14/ostream ****       operator<<(bool __n)
 183:/usr/include/c++/14/ostream ****       { return _M_insert(__n); }
 184:/usr/include/c++/14/ostream **** 
 185:/usr/include/c++/14/ostream ****       __ostream_type&
 186:/usr/include/c++/14/ostream ****       operator<<(short __n);
 187:/usr/include/c++/14/ostream **** 
 188:/usr/include/c++/14/ostream ****       __ostream_type&
 189:/usr/include/c++/14/ostream ****       operator<<(unsigned short __n)
 190:/usr/include/c++/14/ostream ****       {
 191:/usr/include/c++/14/ostream **** 	// _GLIBCXX_RESOLVE_LIB_DEFECTS
 192:/usr/include/c++/14/ostream **** 	// 117. basic_ostream uses nonexistent num_put member functions.
 193:/usr/include/c++/14/ostream **** 	return _M_insert(static_cast<unsigned long>(__n));
 194:/usr/include/c++/14/ostream ****       }
 195:/usr/include/c++/14/ostream **** 
 196:/usr/include/c++/14/ostream ****       __ostream_type&
 197:/usr/include/c++/14/ostream ****       operator<<(int __n);
 198:/usr/include/c++/14/ostream **** 
 199:/usr/include/c++/14/ostream ****       __ostream_type&
 200:/usr/include/c++/14/ostream ****       operator<<(unsigned int __n)
 201:/usr/include/c++/14/ostream ****       {
 202:/usr/include/c++/14/ostream **** 	// _GLIBCXX_RESOLVE_LIB_DEFECTS
 203:/usr/include/c++/14/ostream **** 	// 117. basic_ostream uses nonexistent num_put member functions.
 204:/usr/include/c++/14/ostream **** 	return _M_insert(static_cast<unsigned long>(__n));
 205:/usr/include/c++/14/ostream ****       }
 206:/usr/include/c++/14/ostream **** 
GAS LISTING linobj/Ch02_03.s 			page 28


 207:/usr/include/c++/14/ostream **** #ifdef _GLIBCXX_USE_LONG_LONG
 208:/usr/include/c++/14/ostream ****       __ostream_type&
 209:/usr/include/c++/14/ostream ****       operator<<(long long __n)
 210:/usr/include/c++/14/ostream ****       { return _M_insert(__n); }
 211:/usr/include/c++/14/ostream **** 
 212:/usr/include/c++/14/ostream ****       __ostream_type&
 213:/usr/include/c++/14/ostream ****       operator<<(unsigned long long __n)
 214:/usr/include/c++/14/ostream ****       { return _M_insert(__n); }
 215:/usr/include/c++/14/ostream **** #endif
 216:/usr/include/c++/14/ostream ****       ///@}
 217:/usr/include/c++/14/ostream **** 
 218:/usr/include/c++/14/ostream ****       ///@{
 219:/usr/include/c++/14/ostream ****       /**
 220:/usr/include/c++/14/ostream ****        *  @brief  Floating point arithmetic inserters
 221:/usr/include/c++/14/ostream ****        *  @param  __f A variable of builtin floating point type.
 222:/usr/include/c++/14/ostream ****        *  @return  @c *this if successful
 223:/usr/include/c++/14/ostream ****        *
 224:/usr/include/c++/14/ostream ****        *  These functions use the stream's current locale (specifically, the
 225:/usr/include/c++/14/ostream ****        *  @c num_get facet) to perform numeric formatting.
 226:/usr/include/c++/14/ostream ****       */
 227:/usr/include/c++/14/ostream ****       __ostream_type&
 228:/usr/include/c++/14/ostream ****       operator<<(double __f)
 229:/usr/include/c++/14/ostream ****       { return _M_insert(__f); }
 230:/usr/include/c++/14/ostream **** 
 231:/usr/include/c++/14/ostream ****       __ostream_type&
 232:/usr/include/c++/14/ostream ****       operator<<(float __f)
 233:/usr/include/c++/14/ostream ****       {
 234:/usr/include/c++/14/ostream **** 	// _GLIBCXX_RESOLVE_LIB_DEFECTS
 235:/usr/include/c++/14/ostream **** 	// 117. basic_ostream uses nonexistent num_put member functions.
 236:/usr/include/c++/14/ostream **** 	return _M_insert(static_cast<double>(__f));
 237:/usr/include/c++/14/ostream ****       }
 238:/usr/include/c++/14/ostream **** 
 239:/usr/include/c++/14/ostream ****       __ostream_type&
 240:/usr/include/c++/14/ostream ****       operator<<(long double __f)
 241:/usr/include/c++/14/ostream ****       { return _M_insert(__f); }
 242:/usr/include/c++/14/ostream ****       ///@}
 243:/usr/include/c++/14/ostream **** 
 244:/usr/include/c++/14/ostream **** #if defined(__STDCPP_FLOAT16_T__) && defined(_GLIBCXX_DOUBLE_IS_IEEE_BINARY64)
 245:/usr/include/c++/14/ostream ****       __attribute__((__always_inline__))
 246:/usr/include/c++/14/ostream ****       __ostream_type&
 247:/usr/include/c++/14/ostream ****       operator<<(_Float16 __f)
 248:/usr/include/c++/14/ostream ****       {
 249:/usr/include/c++/14/ostream **** 	return _M_insert(static_cast<double>(__f));
 250:/usr/include/c++/14/ostream ****       }
 251:/usr/include/c++/14/ostream **** #endif
 252:/usr/include/c++/14/ostream **** 
 253:/usr/include/c++/14/ostream **** #if defined(__STDCPP_FLOAT32_T__) && defined(_GLIBCXX_DOUBLE_IS_IEEE_BINARY64)
 254:/usr/include/c++/14/ostream ****       __attribute__((__always_inline__))
 255:/usr/include/c++/14/ostream ****       __ostream_type&
 256:/usr/include/c++/14/ostream ****       operator<<(_Float32 __f)
 257:/usr/include/c++/14/ostream ****       {
 258:/usr/include/c++/14/ostream **** 	return _M_insert(static_cast<double>(__f));
 259:/usr/include/c++/14/ostream ****       }
 260:/usr/include/c++/14/ostream **** #endif
 261:/usr/include/c++/14/ostream **** 
 262:/usr/include/c++/14/ostream **** #if defined(__STDCPP_FLOAT64_T__) && defined(_GLIBCXX_DOUBLE_IS_IEEE_BINARY64)
 263:/usr/include/c++/14/ostream ****       __attribute__((__always_inline__))
GAS LISTING linobj/Ch02_03.s 			page 29


 264:/usr/include/c++/14/ostream ****       __ostream_type&
 265:/usr/include/c++/14/ostream ****       operator<<(_Float64 __f)
 266:/usr/include/c++/14/ostream ****       {
 267:/usr/include/c++/14/ostream **** 	return _M_insert(static_cast<double>(__f));
 268:/usr/include/c++/14/ostream ****       }
 269:/usr/include/c++/14/ostream **** #endif
 270:/usr/include/c++/14/ostream **** 
 271:/usr/include/c++/14/ostream **** #if defined(__STDCPP_FLOAT128_T__) && defined(_GLIBCXX_LDOUBLE_IS_IEEE_BINARY128)
 272:/usr/include/c++/14/ostream ****       __attribute__((__always_inline__))
 273:/usr/include/c++/14/ostream ****       __ostream_type&
 274:/usr/include/c++/14/ostream ****       operator<<(_Float128 __f)
 275:/usr/include/c++/14/ostream ****       {
 276:/usr/include/c++/14/ostream **** 	return _M_insert(static_cast<long double>(__f));
 277:/usr/include/c++/14/ostream ****       }
 278:/usr/include/c++/14/ostream **** #endif
 279:/usr/include/c++/14/ostream **** 
 280:/usr/include/c++/14/ostream **** #if defined(__STDCPP_BFLOAT16_T__) && defined(_GLIBCXX_DOUBLE_IS_IEEE_BINARY64)
 281:/usr/include/c++/14/ostream ****       __attribute__((__always_inline__))
 282:/usr/include/c++/14/ostream ****       __ostream_type&
 283:/usr/include/c++/14/ostream ****       operator<<(__gnu_cxx::__bfloat16_t __f)
 284:/usr/include/c++/14/ostream ****       {
 285:/usr/include/c++/14/ostream **** 	return _M_insert(static_cast<double>(__f));
 286:/usr/include/c++/14/ostream ****       }
 287:/usr/include/c++/14/ostream **** #endif
 288:/usr/include/c++/14/ostream **** 
 289:/usr/include/c++/14/ostream ****       /**
 290:/usr/include/c++/14/ostream ****        *  @brief  Pointer arithmetic inserters
 291:/usr/include/c++/14/ostream ****        *  @param  __p A variable of pointer type.
 292:/usr/include/c++/14/ostream ****        *  @return  @c *this if successful
 293:/usr/include/c++/14/ostream ****        *
 294:/usr/include/c++/14/ostream ****        *  These functions use the stream's current locale (specifically, the
 295:/usr/include/c++/14/ostream ****        *  @c num_get facet) to perform numeric formatting.
 296:/usr/include/c++/14/ostream ****       */
 297:/usr/include/c++/14/ostream ****       __ostream_type&
 298:/usr/include/c++/14/ostream ****       operator<<(const void* __p)
 299:/usr/include/c++/14/ostream ****       { return _M_insert(__p); }
 300:/usr/include/c++/14/ostream **** 
 301:/usr/include/c++/14/ostream **** #if __cplusplus >= 201703L
 302:/usr/include/c++/14/ostream ****       __ostream_type&
 303:/usr/include/c++/14/ostream ****       operator<<(nullptr_t)
 304:/usr/include/c++/14/ostream ****       { return *this << "nullptr"; }
 305:/usr/include/c++/14/ostream **** #endif
 306:/usr/include/c++/14/ostream **** 
 307:/usr/include/c++/14/ostream **** #if __cplusplus > 202002L
 308:/usr/include/c++/14/ostream ****       __attribute__((__always_inline__))
 309:/usr/include/c++/14/ostream ****       __ostream_type&
 310:/usr/include/c++/14/ostream ****       operator<<(const volatile void* __p)
 311:/usr/include/c++/14/ostream ****       { return _M_insert(const_cast<const void*>(__p)); }
 312:/usr/include/c++/14/ostream **** #endif
 313:/usr/include/c++/14/ostream **** 
 314:/usr/include/c++/14/ostream ****       /**
 315:/usr/include/c++/14/ostream ****        *  @brief  Extracting from another streambuf.
 316:/usr/include/c++/14/ostream ****        *  @param  __sb  A pointer to a streambuf
 317:/usr/include/c++/14/ostream ****        *
 318:/usr/include/c++/14/ostream ****        *  This function behaves like one of the basic arithmetic extractors,
 319:/usr/include/c++/14/ostream ****        *  in that it also constructs a sentry object and has the same error
 320:/usr/include/c++/14/ostream ****        *  handling behavior.
GAS LISTING linobj/Ch02_03.s 			page 30


 321:/usr/include/c++/14/ostream ****        *
 322:/usr/include/c++/14/ostream ****        *  If @p __sb is NULL, the stream will set failbit in its error state.
 323:/usr/include/c++/14/ostream ****        *
 324:/usr/include/c++/14/ostream ****        *  Characters are extracted from @p __sb and inserted into @c *this
 325:/usr/include/c++/14/ostream ****        *  until one of the following occurs:
 326:/usr/include/c++/14/ostream ****        *
 327:/usr/include/c++/14/ostream ****        *  - the input stream reaches end-of-file,
 328:/usr/include/c++/14/ostream ****        *  - insertion into the output sequence fails (in this case, the
 329:/usr/include/c++/14/ostream ****        *    character that would have been inserted is not extracted), or
 330:/usr/include/c++/14/ostream ****        *  - an exception occurs while getting a character from @p __sb, which
 331:/usr/include/c++/14/ostream ****        *    sets failbit in the error state
 332:/usr/include/c++/14/ostream ****        *
 333:/usr/include/c++/14/ostream ****        *  If the function inserts no characters, failbit is set.
 334:/usr/include/c++/14/ostream ****       */
 335:/usr/include/c++/14/ostream ****       __ostream_type&
 336:/usr/include/c++/14/ostream ****       operator<<(__streambuf_type* __sb);
 337:/usr/include/c++/14/ostream ****       ///@}
 338:/usr/include/c++/14/ostream **** 
 339:/usr/include/c++/14/ostream ****       ///@{
 340:/usr/include/c++/14/ostream ****       /**
 341:/usr/include/c++/14/ostream ****        *  @name Unformatted Output Functions
 342:/usr/include/c++/14/ostream ****        *
 343:/usr/include/c++/14/ostream ****        *  All the unformatted output functions have some common behavior.
 344:/usr/include/c++/14/ostream ****        *  Each starts by constructing a temporary object of type
 345:/usr/include/c++/14/ostream ****        *  std::basic_ostream::sentry.  This has several effects, concluding
 346:/usr/include/c++/14/ostream ****        *  with the setting of a status flag; see the sentry documentation
 347:/usr/include/c++/14/ostream ****        *  for more.
 348:/usr/include/c++/14/ostream ****        *
 349:/usr/include/c++/14/ostream ****        *  If the sentry status is good, the function tries to generate
 350:/usr/include/c++/14/ostream ****        *  whatever data is appropriate for the type of the argument.
 351:/usr/include/c++/14/ostream ****        *
 352:/usr/include/c++/14/ostream ****        *  If an exception is thrown during insertion, ios_base::badbit
 353:/usr/include/c++/14/ostream ****        *  will be turned on in the stream's error state.  If badbit is on in
 354:/usr/include/c++/14/ostream ****        *  the stream's exceptions mask, the exception will be rethrown
 355:/usr/include/c++/14/ostream ****        *  without completing its actions.
 356:/usr/include/c++/14/ostream ****       */
 357:/usr/include/c++/14/ostream **** 
 358:/usr/include/c++/14/ostream ****       /**
 359:/usr/include/c++/14/ostream ****        *  @brief  Simple insertion.
 360:/usr/include/c++/14/ostream ****        *  @param  __c  The character to insert.
 361:/usr/include/c++/14/ostream ****        *  @return  *this
 362:/usr/include/c++/14/ostream ****        *
 363:/usr/include/c++/14/ostream ****        *  Tries to insert @p __c.
 364:/usr/include/c++/14/ostream ****        *
 365:/usr/include/c++/14/ostream ****        *  @note  This function is not overloaded on signed char and
 366:/usr/include/c++/14/ostream ****        *         unsigned char.
 367:/usr/include/c++/14/ostream ****       */
 368:/usr/include/c++/14/ostream ****       __ostream_type&
 369:/usr/include/c++/14/ostream ****       put(char_type __c);
 370:/usr/include/c++/14/ostream **** 
 371:/usr/include/c++/14/ostream ****       /**
 372:/usr/include/c++/14/ostream ****        *  @brief  Character string insertion.
 373:/usr/include/c++/14/ostream ****        *  @param  __s  The array to insert.
 374:/usr/include/c++/14/ostream ****        *  @param  __n  Maximum number of characters to insert.
 375:/usr/include/c++/14/ostream ****        *  @return  *this
 376:/usr/include/c++/14/ostream ****        *
 377:/usr/include/c++/14/ostream ****        *  Characters are copied from @p __s and inserted into the stream until
GAS LISTING linobj/Ch02_03.s 			page 31


 378:/usr/include/c++/14/ostream ****        *  one of the following happens:
 379:/usr/include/c++/14/ostream ****        *
 380:/usr/include/c++/14/ostream ****        *  - @p __n characters are inserted
 381:/usr/include/c++/14/ostream ****        *  - inserting into the output sequence fails (in this case, badbit
 382:/usr/include/c++/14/ostream ****        *    will be set in the stream's error state)
 383:/usr/include/c++/14/ostream ****        *
 384:/usr/include/c++/14/ostream ****        *  @note  This function is not overloaded on signed char and
 385:/usr/include/c++/14/ostream ****        *         unsigned char.
 386:/usr/include/c++/14/ostream ****       */
 387:/usr/include/c++/14/ostream ****       __ostream_type&
 388:/usr/include/c++/14/ostream ****       write(const char_type* __s, streamsize __n);
 389:/usr/include/c++/14/ostream ****       ///@}
 390:/usr/include/c++/14/ostream **** 
 391:/usr/include/c++/14/ostream ****       /**
 392:/usr/include/c++/14/ostream ****        *  @brief  Synchronizing the stream buffer.
 393:/usr/include/c++/14/ostream ****        *  @return  *this
 394:/usr/include/c++/14/ostream ****        *
 395:/usr/include/c++/14/ostream ****        *  If @c rdbuf() is a null pointer, changes nothing.
 396:/usr/include/c++/14/ostream ****        *
 397:/usr/include/c++/14/ostream ****        *  Otherwise, calls @c rdbuf()->pubsync(), and if that returns -1,
 398:/usr/include/c++/14/ostream ****        *  sets badbit.
 399:/usr/include/c++/14/ostream ****       */
 400:/usr/include/c++/14/ostream ****       __ostream_type&
 401:/usr/include/c++/14/ostream ****       flush();
 402:/usr/include/c++/14/ostream **** 
 403:/usr/include/c++/14/ostream ****       /**
 404:/usr/include/c++/14/ostream ****        *  @brief  Getting the current write position.
 405:/usr/include/c++/14/ostream ****        *  @return  A file position object.
 406:/usr/include/c++/14/ostream ****        *
 407:/usr/include/c++/14/ostream ****        *  If @c fail() is not false, returns @c pos_type(-1) to indicate
 408:/usr/include/c++/14/ostream ****        *  failure.  Otherwise returns @c rdbuf()->pubseekoff(0,cur,out).
 409:/usr/include/c++/14/ostream ****       */
 410:/usr/include/c++/14/ostream ****       pos_type
 411:/usr/include/c++/14/ostream ****       tellp();
 412:/usr/include/c++/14/ostream **** 
 413:/usr/include/c++/14/ostream ****       /**
 414:/usr/include/c++/14/ostream ****        *  @brief  Changing the current write position.
 415:/usr/include/c++/14/ostream ****        *  @param  __pos  A file position object.
 416:/usr/include/c++/14/ostream ****        *  @return  *this
 417:/usr/include/c++/14/ostream ****        *
 418:/usr/include/c++/14/ostream ****        *  If @c fail() is not true, calls @c rdbuf()->pubseekpos(pos).  If
 419:/usr/include/c++/14/ostream ****        *  that function fails, sets failbit.
 420:/usr/include/c++/14/ostream ****       */
 421:/usr/include/c++/14/ostream ****       __ostream_type&
 422:/usr/include/c++/14/ostream ****       seekp(pos_type);
 423:/usr/include/c++/14/ostream **** 
 424:/usr/include/c++/14/ostream ****       /**
 425:/usr/include/c++/14/ostream ****        *  @brief  Changing the current write position.
 426:/usr/include/c++/14/ostream ****        *  @param  __off  A file offset object.
 427:/usr/include/c++/14/ostream ****        *  @param  __dir  The direction in which to seek.
 428:/usr/include/c++/14/ostream ****        *  @return  *this
 429:/usr/include/c++/14/ostream ****        *
 430:/usr/include/c++/14/ostream ****        *  If @c fail() is not true, calls @c rdbuf()->pubseekoff(off,dir).
 431:/usr/include/c++/14/ostream ****        *  If that function fails, sets failbit.
 432:/usr/include/c++/14/ostream ****       */
 433:/usr/include/c++/14/ostream ****        __ostream_type&
 434:/usr/include/c++/14/ostream ****       seekp(off_type, ios_base::seekdir);
GAS LISTING linobj/Ch02_03.s 			page 32


 435:/usr/include/c++/14/ostream **** 
 436:/usr/include/c++/14/ostream ****     protected:
 437:/usr/include/c++/14/ostream ****       basic_ostream()
 438:/usr/include/c++/14/ostream ****       { this->init(0); }
 439:/usr/include/c++/14/ostream **** 
 440:/usr/include/c++/14/ostream **** #if __cplusplus >= 201103L
 441:/usr/include/c++/14/ostream ****       // Non-standard constructor that does not call init()
 442:/usr/include/c++/14/ostream ****       basic_ostream(basic_iostream<_CharT, _Traits>&) { }
 443:/usr/include/c++/14/ostream **** 
 444:/usr/include/c++/14/ostream ****       basic_ostream(const basic_ostream&) = delete;
 445:/usr/include/c++/14/ostream **** 
 446:/usr/include/c++/14/ostream ****       basic_ostream(basic_ostream&& __rhs)
 447:/usr/include/c++/14/ostream ****       : __ios_type()
 448:/usr/include/c++/14/ostream ****       { __ios_type::move(__rhs); }
 449:/usr/include/c++/14/ostream **** 
 450:/usr/include/c++/14/ostream ****       // 27.7.3.3 Assign/swap
 451:/usr/include/c++/14/ostream **** 
 452:/usr/include/c++/14/ostream ****       basic_ostream& operator=(const basic_ostream&) = delete;
 453:/usr/include/c++/14/ostream **** 
 454:/usr/include/c++/14/ostream ****       basic_ostream&
 455:/usr/include/c++/14/ostream ****       operator=(basic_ostream&& __rhs)
 456:/usr/include/c++/14/ostream ****       {
 457:/usr/include/c++/14/ostream **** 	swap(__rhs);
 458:/usr/include/c++/14/ostream **** 	return *this;
 459:/usr/include/c++/14/ostream ****       }
 460:/usr/include/c++/14/ostream **** 
 461:/usr/include/c++/14/ostream ****       void
 462:/usr/include/c++/14/ostream ****       swap(basic_ostream& __rhs)
 463:/usr/include/c++/14/ostream ****       { __ios_type::swap(__rhs); }
 464:/usr/include/c++/14/ostream **** #endif
 465:/usr/include/c++/14/ostream **** 
 466:/usr/include/c++/14/ostream ****       template<typename _ValueT>
 467:/usr/include/c++/14/ostream **** 	__ostream_type&
 468:/usr/include/c++/14/ostream **** 	_M_insert(_ValueT __v);
 469:/usr/include/c++/14/ostream **** 
 470:/usr/include/c++/14/ostream ****     private:
 471:/usr/include/c++/14/ostream **** #if !_GLIBCXX_INLINE_VERSION
 472:/usr/include/c++/14/ostream ****       void
 473:/usr/include/c++/14/ostream ****       _M_write(const char_type* __s, streamsize __n)
 474:/usr/include/c++/14/ostream ****       { std::__ostream_insert(*this, __s, __n); }
 475:/usr/include/c++/14/ostream **** #endif
 476:/usr/include/c++/14/ostream ****     };
 477:/usr/include/c++/14/ostream **** 
 478:/usr/include/c++/14/ostream ****   /**
 479:/usr/include/c++/14/ostream ****    *  @brief  Performs setup work for output streams.
 480:/usr/include/c++/14/ostream ****    *
 481:/usr/include/c++/14/ostream ****    *  Objects of this class are created before all of the standard
 482:/usr/include/c++/14/ostream ****    *  inserters are run.  It is responsible for <em>exception-safe prefix and
 483:/usr/include/c++/14/ostream ****    *  suffix operations</em>.
 484:/usr/include/c++/14/ostream ****   */
 485:/usr/include/c++/14/ostream ****   template <typename _CharT, typename _Traits>
 486:/usr/include/c++/14/ostream ****     class basic_ostream<_CharT, _Traits>::sentry
 487:/usr/include/c++/14/ostream ****     {
 488:/usr/include/c++/14/ostream ****       // Data Members.
 489:/usr/include/c++/14/ostream ****       bool 				_M_ok;
 490:/usr/include/c++/14/ostream ****       basic_ostream<_CharT, _Traits>& 	_M_os;
 491:/usr/include/c++/14/ostream **** 
GAS LISTING linobj/Ch02_03.s 			page 33


 492:/usr/include/c++/14/ostream ****     public:
 493:/usr/include/c++/14/ostream ****       /**
 494:/usr/include/c++/14/ostream ****        *  @brief  The constructor performs preparatory work.
 495:/usr/include/c++/14/ostream ****        *  @param  __os  The output stream to guard.
 496:/usr/include/c++/14/ostream ****        *
 497:/usr/include/c++/14/ostream ****        *  If the stream state is good (@a __os.good() is true), then if the
 498:/usr/include/c++/14/ostream ****        *  stream is tied to another output stream, @c is.tie()->flush()
 499:/usr/include/c++/14/ostream ****        *  is called to synchronize the output sequences.
 500:/usr/include/c++/14/ostream ****        *
 501:/usr/include/c++/14/ostream ****        *  If the stream state is still good, then the sentry state becomes
 502:/usr/include/c++/14/ostream ****        *  true (@a okay).
 503:/usr/include/c++/14/ostream ****       */
 504:/usr/include/c++/14/ostream ****       explicit
 505:/usr/include/c++/14/ostream ****       sentry(basic_ostream<_CharT, _Traits>& __os);
 506:/usr/include/c++/14/ostream **** 
 507:/usr/include/c++/14/ostream **** #pragma GCC diagnostic push
 508:/usr/include/c++/14/ostream **** #pragma GCC diagnostic ignored "-Wdeprecated-declarations"
 509:/usr/include/c++/14/ostream ****       /**
 510:/usr/include/c++/14/ostream ****        *  @brief  Possibly flushes the stream.
 511:/usr/include/c++/14/ostream ****        *
 512:/usr/include/c++/14/ostream ****        *  If @c ios_base::unitbuf is set in @c os.flags(), and
 513:/usr/include/c++/14/ostream ****        *  @c std::uncaught_exception() is true, the sentry destructor calls
 514:/usr/include/c++/14/ostream ****        *  @c flush() on the output stream.
 515:/usr/include/c++/14/ostream ****       */
 516:/usr/include/c++/14/ostream ****       ~sentry()
 517:/usr/include/c++/14/ostream ****       {
 518:/usr/include/c++/14/ostream **** 	// XXX MT
 519:/usr/include/c++/14/ostream **** 	if (bool(_M_os.flags() & ios_base::unitbuf) && !uncaught_exception())
 520:/usr/include/c++/14/ostream **** 	  {
 521:/usr/include/c++/14/ostream **** 	    // Can't call flush directly or else will get into recursive lock.
 522:/usr/include/c++/14/ostream **** 	    if (_M_os.rdbuf() && _M_os.rdbuf()->pubsync() == -1)
 523:/usr/include/c++/14/ostream **** 	      _M_os.setstate(ios_base::badbit);
 524:/usr/include/c++/14/ostream **** 	  }
 525:/usr/include/c++/14/ostream ****       }
 526:/usr/include/c++/14/ostream **** #pragma GCC diagnostic pop
 527:/usr/include/c++/14/ostream **** 
 528:/usr/include/c++/14/ostream ****       /**
 529:/usr/include/c++/14/ostream ****        *  @brief  Quick status checking.
 530:/usr/include/c++/14/ostream ****        *  @return  The sentry state.
 531:/usr/include/c++/14/ostream ****        *
 532:/usr/include/c++/14/ostream ****        *  For ease of use, sentries may be converted to booleans.  The
 533:/usr/include/c++/14/ostream ****        *  return value is that of the sentry state (true == okay).
 534:/usr/include/c++/14/ostream ****       */
 535:/usr/include/c++/14/ostream **** #if __cplusplus >= 201103L
 536:/usr/include/c++/14/ostream ****       explicit
 537:/usr/include/c++/14/ostream **** #endif
 538:/usr/include/c++/14/ostream ****       operator bool() const
 539:/usr/include/c++/14/ostream ****       { return _M_ok; }
 540:/usr/include/c++/14/ostream ****     };
 541:/usr/include/c++/14/ostream **** 
 542:/usr/include/c++/14/ostream ****   ///@{
 543:/usr/include/c++/14/ostream ****   /**
 544:/usr/include/c++/14/ostream ****    *  @brief  Character inserters
 545:/usr/include/c++/14/ostream ****    *  @param  __out  An output stream.
 546:/usr/include/c++/14/ostream ****    *  @param  __c  A character.
 547:/usr/include/c++/14/ostream ****    *  @return  out
 548:/usr/include/c++/14/ostream ****    *
GAS LISTING linobj/Ch02_03.s 			page 34


 549:/usr/include/c++/14/ostream ****    *  Behaves like one of the formatted arithmetic inserters described in
 550:/usr/include/c++/14/ostream ****    *  std::basic_ostream.  After constructing a sentry object with good
 551:/usr/include/c++/14/ostream ****    *  status, this function inserts a single character and any required
 552:/usr/include/c++/14/ostream ****    *  padding (as determined by [22.2.2.2.2]).  @c __out.width(0) is then
 553:/usr/include/c++/14/ostream ****    *  called.
 554:/usr/include/c++/14/ostream ****    *
 555:/usr/include/c++/14/ostream ****    *  If @p __c is of type @c char and the character type of the stream is not
 556:/usr/include/c++/14/ostream ****    *  @c char, the character is widened before insertion.
 557:/usr/include/c++/14/ostream ****   */
 558:/usr/include/c++/14/ostream ****   template<typename _CharT, typename _Traits>
 559:/usr/include/c++/14/ostream ****     inline basic_ostream<_CharT, _Traits>&
 560:/usr/include/c++/14/ostream ****     operator<<(basic_ostream<_CharT, _Traits>& __out, _CharT __c)
 561:/usr/include/c++/14/ostream ****     {
 562:/usr/include/c++/14/ostream ****       if (__out.width() != 0)
 563:/usr/include/c++/14/ostream **** 	return __ostream_insert(__out, &__c, 1);
 564:/usr/include/c++/14/ostream ****       __out.put(__c);
 565:/usr/include/c++/14/ostream ****       return __out;
 566:/usr/include/c++/14/ostream ****     }
 567:/usr/include/c++/14/ostream **** 
 568:/usr/include/c++/14/ostream ****   template<typename _CharT, typename _Traits>
 569:/usr/include/c++/14/ostream ****     inline basic_ostream<_CharT, _Traits>&
 570:/usr/include/c++/14/ostream ****     operator<<(basic_ostream<_CharT, _Traits>& __out, char __c)
 571:/usr/include/c++/14/ostream ****     { return (__out << __out.widen(__c)); }
 572:/usr/include/c++/14/ostream **** 
 573:/usr/include/c++/14/ostream ****   // Specialization
 574:/usr/include/c++/14/ostream ****   template<typename _Traits>
 575:/usr/include/c++/14/ostream ****     inline basic_ostream<char, _Traits>&
 576:/usr/include/c++/14/ostream ****     operator<<(basic_ostream<char, _Traits>& __out, char __c)
 577:/usr/include/c++/14/ostream ****     {
 578:/usr/include/c++/14/ostream ****       if (__out.width() != 0)
 579:/usr/include/c++/14/ostream **** 	return __ostream_insert(__out, &__c, 1);
 580:/usr/include/c++/14/ostream ****       __out.put(__c);
 581:/usr/include/c++/14/ostream ****       return __out;
 582:/usr/include/c++/14/ostream ****     }
 583:/usr/include/c++/14/ostream **** 
 584:/usr/include/c++/14/ostream ****   // Signed and unsigned
 585:/usr/include/c++/14/ostream ****   template<typename _Traits>
 586:/usr/include/c++/14/ostream ****     inline basic_ostream<char, _Traits>&
 587:/usr/include/c++/14/ostream ****     operator<<(basic_ostream<char, _Traits>& __out, signed char __c)
 588:/usr/include/c++/14/ostream ****     { return (__out << static_cast<char>(__c)); }
 589:/usr/include/c++/14/ostream **** 
 590:/usr/include/c++/14/ostream ****   template<typename _Traits>
 591:/usr/include/c++/14/ostream ****     inline basic_ostream<char, _Traits>&
 592:/usr/include/c++/14/ostream ****     operator<<(basic_ostream<char, _Traits>& __out, unsigned char __c)
 593:/usr/include/c++/14/ostream ****     { return (__out << static_cast<char>(__c)); }
 594:/usr/include/c++/14/ostream **** 
 595:/usr/include/c++/14/ostream **** #if __cplusplus > 201703L
 596:/usr/include/c++/14/ostream ****   // The following deleted overloads prevent formatting character values as
 597:/usr/include/c++/14/ostream ****   // numeric values.
 598:/usr/include/c++/14/ostream **** 
 599:/usr/include/c++/14/ostream ****   template<typename _Traits>
 600:/usr/include/c++/14/ostream ****     basic_ostream<char, _Traits>&
 601:/usr/include/c++/14/ostream ****     operator<<(basic_ostream<char, _Traits>&, wchar_t) = delete;
 602:/usr/include/c++/14/ostream **** 
 603:/usr/include/c++/14/ostream **** #ifdef _GLIBCXX_USE_CHAR8_T
 604:/usr/include/c++/14/ostream ****   template<typename _Traits>
 605:/usr/include/c++/14/ostream ****     basic_ostream<char, _Traits>&
GAS LISTING linobj/Ch02_03.s 			page 35


 606:/usr/include/c++/14/ostream ****     operator<<(basic_ostream<char, _Traits>&, char8_t) = delete;
 607:/usr/include/c++/14/ostream **** #endif
 608:/usr/include/c++/14/ostream **** 
 609:/usr/include/c++/14/ostream ****   template<typename _Traits>
 610:/usr/include/c++/14/ostream ****     basic_ostream<char, _Traits>&
 611:/usr/include/c++/14/ostream ****     operator<<(basic_ostream<char, _Traits>&, char16_t) = delete;
 612:/usr/include/c++/14/ostream **** 
 613:/usr/include/c++/14/ostream ****   template<typename _Traits>
 614:/usr/include/c++/14/ostream ****     basic_ostream<char, _Traits>&
 615:/usr/include/c++/14/ostream ****     operator<<(basic_ostream<char, _Traits>&, char32_t) = delete;
 616:/usr/include/c++/14/ostream **** 
 617:/usr/include/c++/14/ostream **** #ifdef _GLIBCXX_USE_WCHAR_T
 618:/usr/include/c++/14/ostream **** #ifdef _GLIBCXX_USE_CHAR8_T
 619:/usr/include/c++/14/ostream ****   template<typename _Traits>
 620:/usr/include/c++/14/ostream ****     basic_ostream<wchar_t, _Traits>&
 621:/usr/include/c++/14/ostream ****     operator<<(basic_ostream<wchar_t, _Traits>&, char8_t) = delete;
 622:/usr/include/c++/14/ostream **** #endif // _GLIBCXX_USE_CHAR8_T
 623:/usr/include/c++/14/ostream **** 
 624:/usr/include/c++/14/ostream ****   template<typename _Traits>
 625:/usr/include/c++/14/ostream ****     basic_ostream<wchar_t, _Traits>&
 626:/usr/include/c++/14/ostream ****     operator<<(basic_ostream<wchar_t, _Traits>&, char16_t) = delete;
 627:/usr/include/c++/14/ostream **** 
 628:/usr/include/c++/14/ostream ****   template<typename _Traits>
 629:/usr/include/c++/14/ostream ****     basic_ostream<wchar_t, _Traits>&
 630:/usr/include/c++/14/ostream ****     operator<<(basic_ostream<wchar_t, _Traits>&, char32_t) = delete;
 631:/usr/include/c++/14/ostream **** #endif // _GLIBCXX_USE_WCHAR_T
 632:/usr/include/c++/14/ostream **** #endif // C++20
 633:/usr/include/c++/14/ostream ****   ///@}
 634:/usr/include/c++/14/ostream **** 
 635:/usr/include/c++/14/ostream ****   ///@{
 636:/usr/include/c++/14/ostream ****   /**
 637:/usr/include/c++/14/ostream ****    *  @brief  String inserters
 638:/usr/include/c++/14/ostream ****    *  @param  __out  An output stream.
 639:/usr/include/c++/14/ostream ****    *  @param  __s  A character string.
 640:/usr/include/c++/14/ostream ****    *  @return  out
 641:/usr/include/c++/14/ostream ****    *  @pre  @p __s must be a non-NULL pointer
 642:/usr/include/c++/14/ostream ****    *
 643:/usr/include/c++/14/ostream ****    *  Behaves like one of the formatted arithmetic inserters described in
 644:/usr/include/c++/14/ostream ****    *  std::basic_ostream.  After constructing a sentry object with good
 645:/usr/include/c++/14/ostream ****    *  status, this function inserts @c traits::length(__s) characters starting
 646:/usr/include/c++/14/ostream ****    *  at @p __s, widened if necessary, followed by any required padding (as
 647:/usr/include/c++/14/ostream ****    *  determined by [22.2.2.2.2]).  @c __out.width(0) is then called.
 648:/usr/include/c++/14/ostream ****   */
 649:/usr/include/c++/14/ostream ****   template<typename _CharT, typename _Traits>
 650:/usr/include/c++/14/ostream ****     inline basic_ostream<_CharT, _Traits>&
 651:/usr/include/c++/14/ostream ****     operator<<(basic_ostream<_CharT, _Traits>& __out, const _CharT* __s)
 652:/usr/include/c++/14/ostream ****     {
 653:/usr/include/c++/14/ostream ****       if (!__s)
 654:/usr/include/c++/14/ostream **** 	__out.setstate(ios_base::badbit);
 655:/usr/include/c++/14/ostream ****       else
 656:/usr/include/c++/14/ostream **** 	__ostream_insert(__out, __s,
 657:/usr/include/c++/14/ostream **** 			 static_cast<streamsize>(_Traits::length(__s)));
 658:/usr/include/c++/14/ostream ****       return __out;
 659:/usr/include/c++/14/ostream ****     }
 660:/usr/include/c++/14/ostream **** 
 661:/usr/include/c++/14/ostream ****   template<typename _CharT, typename _Traits>
 662:/usr/include/c++/14/ostream ****     basic_ostream<_CharT, _Traits> &
GAS LISTING linobj/Ch02_03.s 			page 36


 663:/usr/include/c++/14/ostream ****     operator<<(basic_ostream<_CharT, _Traits>& __out, const char* __s);
 664:/usr/include/c++/14/ostream **** 
 665:/usr/include/c++/14/ostream ****   // Partial specializations
 666:/usr/include/c++/14/ostream ****   template<typename _Traits>
 667:/usr/include/c++/14/ostream ****     inline basic_ostream<char, _Traits>&
 668:/usr/include/c++/14/ostream ****     operator<<(basic_ostream<char, _Traits>& __out, const char* __s)
 215              		.loc 5 668 5 view .LVU56
 216              	.LBB705:
 669:/usr/include/c++/14/ostream ****     {
 670:/usr/include/c++/14/ostream ****       if (!__s)
 671:/usr/include/c++/14/ostream **** 	__out.setstate(ios_base::badbit);
 672:/usr/include/c++/14/ostream ****       else
 673:/usr/include/c++/14/ostream **** 	__ostream_insert(__out, __s,
 217              		.loc 5 673 18 is_stmt 0 view .LVU57
 218 0068 BA190000 		movl	$25, %edx
 218      00
 219 006d BE000000 		movl	$.LC2, %esi
 219      00
 220 0072 BF000000 		movl	$_ZSt4cout, %edi
 220      00
 221 0077 E8000000 		call	_ZSt16__ostream_insertIcSt11char_traitsIcEERSt13basic_ostreamIT_T0_ES6_PKS3_l
 221      00
 222              	.LVL7:
 223              	.LBE705:
 224              	.LBE704:
 225              	.LBB706:
  44:Ch02_03.cpp   ****     for (size_t i = 0; i < 8; i++)
 226              		.loc 1 44 17 view .LVU58
 227 007c 31DB     		xorl	%ebx, %ebx
 228              	.LVL8:
 229 007e 6690     		.p2align 4,,10
 230              		.p2align 3
 231              	.L9:
  45:Ch02_03.cpp   ****     {
  46:Ch02_03.cpp   ****         std::cout << "a[" << i << "]: " << std::setw(8) << a.m_I16[i] << "  ";
 232              		.loc 1 46 9 is_stmt 1 view .LVU59
 233              	.LBB707:
 234              	.LBI707:
 668:/usr/include/c++/14/ostream ****     {
 235              		.loc 5 668 5 view .LVU60
 236              	.LBB708:
 237              		.loc 5 673 18 is_stmt 0 view .LVU61
 238 0080 BA020000 		movl	$2, %edx
 238      00
 239 0085 BE000000 		movl	$.LC3, %esi
 239      00
 240 008a BF000000 		movl	$_ZSt4cout, %edi
 240      00
 241 008f E8000000 		call	_ZSt16__ostream_insertIcSt11char_traitsIcEERSt13basic_ostreamIT_T0_ES6_PKS3_l
 241      00
 242              	.LVL9:
 243              		.loc 5 673 18 view .LVU62
 244              	.LBE708:
 245              	.LBE707:
 246              	.LBB709:
 247              	.LBI709:
 178:/usr/include/c++/14/ostream ****       { return _M_insert(__n); }
GAS LISTING linobj/Ch02_03.s 			page 37


 248              		.loc 5 178 7 is_stmt 1 view .LVU63
 249              	.LBB710:
 179:/usr/include/c++/14/ostream **** 
 250              		.loc 5 179 25 is_stmt 0 view .LVU64
 251 0094 4889DE   		movq	%rbx, %rsi
 252 0097 BF000000 		movl	$_ZSt4cout, %edi
 252      00
 253 009c E8000000 		call	_ZNSo9_M_insertImEERSoT_
 253      00
 254              	.LVL10:
 255              	.LBE710:
 256              	.LBE709:
 257              	.LBB712:
 258              	.LBB713:
 259              		.loc 5 673 18 view .LVU65
 260 00a1 BA030000 		movl	$3, %edx
 260      00
 261 00a6 BE000000 		movl	$.LC4, %esi
 261      00
 262 00ab 4889C7   		movq	%rax, %rdi
 263              	.LBE713:
 264              	.LBE712:
 265              	.LBB715:
 266              	.LBB711:
 179:/usr/include/c++/14/ostream **** 
 267              		.loc 5 179 25 view .LVU66
 268 00ae 4989C7   		movq	%rax, %r15
 269              	.LVL11:
 179:/usr/include/c++/14/ostream **** 
 270              		.loc 5 179 25 view .LVU67
 271              	.LBE711:
 272              	.LBE715:
 273              	.LBB716:
 274              	.LBI712:
 668:/usr/include/c++/14/ostream ****     {
 275              		.loc 5 668 5 is_stmt 1 view .LVU68
 276              	.LBB714:
 277              		.loc 5 673 18 is_stmt 0 view .LVU69
 278 00b1 E8000000 		call	_ZSt16__ostream_insertIcSt11char_traitsIcEERSt13basic_ostreamIT_T0_ES6_PKS3_l
 278      00
 279              	.LVL12:
 280              		.loc 5 673 18 view .LVU70
 281              	.LBE714:
 282              	.LBE716:
 283              	.LBB717:
 284              	.LBI717:
 285              		.file 6 "/usr/include/c++/14/iomanip"
   1:/usr/include/c++/14/iomanip **** // Standard stream manipulators -*- C++ -*-
   2:/usr/include/c++/14/iomanip **** 
   3:/usr/include/c++/14/iomanip **** // Copyright (C) 1997-2024 Free Software Foundation, Inc.
   4:/usr/include/c++/14/iomanip **** //
   5:/usr/include/c++/14/iomanip **** // This file is part of the GNU ISO C++ Library.  This library is free
   6:/usr/include/c++/14/iomanip **** // software; you can redistribute it and/or modify it under the
   7:/usr/include/c++/14/iomanip **** // terms of the GNU General Public License as published by the
   8:/usr/include/c++/14/iomanip **** // Free Software Foundation; either version 3, or (at your option)
   9:/usr/include/c++/14/iomanip **** // any later version.
  10:/usr/include/c++/14/iomanip **** 
GAS LISTING linobj/Ch02_03.s 			page 38


  11:/usr/include/c++/14/iomanip **** // This library is distributed in the hope that it will be useful,
  12:/usr/include/c++/14/iomanip **** // but WITHOUT ANY WARRANTY; without even the implied warranty of
  13:/usr/include/c++/14/iomanip **** // MERCHANTABILITY or FITNESS FOR A PARTICULAR PURPOSE.  See the
  14:/usr/include/c++/14/iomanip **** // GNU General Public License for more details.
  15:/usr/include/c++/14/iomanip **** 
  16:/usr/include/c++/14/iomanip **** // Under Section 7 of GPL version 3, you are granted additional
  17:/usr/include/c++/14/iomanip **** // permissions described in the GCC Runtime Library Exception, version
  18:/usr/include/c++/14/iomanip **** // 3.1, as published by the Free Software Foundation.
  19:/usr/include/c++/14/iomanip **** 
  20:/usr/include/c++/14/iomanip **** // You should have received a copy of the GNU General Public License and
  21:/usr/include/c++/14/iomanip **** // a copy of the GCC Runtime Library Exception along with this program;
  22:/usr/include/c++/14/iomanip **** // see the files COPYING3 and COPYING.RUNTIME respectively.  If not, see
  23:/usr/include/c++/14/iomanip **** // <http://www.gnu.org/licenses/>.
  24:/usr/include/c++/14/iomanip **** 
  25:/usr/include/c++/14/iomanip **** /** @file include/iomanip
  26:/usr/include/c++/14/iomanip ****  *  This is a Standard C++ Library header.
  27:/usr/include/c++/14/iomanip ****  */
  28:/usr/include/c++/14/iomanip **** 
  29:/usr/include/c++/14/iomanip **** //
  30:/usr/include/c++/14/iomanip **** // ISO C++ 14882: 27.6.3  Standard manipulators
  31:/usr/include/c++/14/iomanip **** //
  32:/usr/include/c++/14/iomanip **** 
  33:/usr/include/c++/14/iomanip **** #ifndef _GLIBCXX_IOMANIP
  34:/usr/include/c++/14/iomanip **** #define _GLIBCXX_IOMANIP 1
  35:/usr/include/c++/14/iomanip **** 
  36:/usr/include/c++/14/iomanip **** #pragma GCC system_header
  37:/usr/include/c++/14/iomanip **** 
  38:/usr/include/c++/14/iomanip **** #include <bits/requires_hosted.h> // iostreams
  39:/usr/include/c++/14/iomanip **** 
  40:/usr/include/c++/14/iomanip **** #include <bits/c++config.h>
  41:/usr/include/c++/14/iomanip **** #include <iosfwd>
  42:/usr/include/c++/14/iomanip **** #include <bits/ios_base.h>
  43:/usr/include/c++/14/iomanip **** 
  44:/usr/include/c++/14/iomanip **** #define __glibcxx_want_quoted_string_io
  45:/usr/include/c++/14/iomanip **** #include <bits/version.h>
  46:/usr/include/c++/14/iomanip **** 
  47:/usr/include/c++/14/iomanip **** #if __cplusplus >= 201103L
  48:/usr/include/c++/14/iomanip **** #include <locale>
  49:/usr/include/c++/14/iomanip **** #if __cplusplus > 201103L
  50:/usr/include/c++/14/iomanip **** #include <bits/quoted_string.h>
  51:/usr/include/c++/14/iomanip **** #endif
  52:/usr/include/c++/14/iomanip **** #endif
  53:/usr/include/c++/14/iomanip **** 
  54:/usr/include/c++/14/iomanip **** namespace std _GLIBCXX_VISIBILITY(default)
  55:/usr/include/c++/14/iomanip **** {
  56:/usr/include/c++/14/iomanip **** _GLIBCXX_BEGIN_NAMESPACE_VERSION
  57:/usr/include/c++/14/iomanip **** 
  58:/usr/include/c++/14/iomanip ****   // [27.6.3] standard manipulators
  59:/usr/include/c++/14/iomanip ****   // Also see DR 183.
  60:/usr/include/c++/14/iomanip **** 
  61:/usr/include/c++/14/iomanip ****   struct _Resetiosflags { ios_base::fmtflags _M_mask; };
  62:/usr/include/c++/14/iomanip **** 
  63:/usr/include/c++/14/iomanip ****   /**
  64:/usr/include/c++/14/iomanip ****    *  @brief  Manipulator for @c setf.
  65:/usr/include/c++/14/iomanip ****    *  @param  __mask  A format flags mask.
  66:/usr/include/c++/14/iomanip ****    *
  67:/usr/include/c++/14/iomanip ****    *  Sent to a stream object, this manipulator resets the specified flags,
GAS LISTING linobj/Ch02_03.s 			page 39


  68:/usr/include/c++/14/iomanip ****    *  via @e stream.setf(0,__mask).
  69:/usr/include/c++/14/iomanip ****   */
  70:/usr/include/c++/14/iomanip ****   inline _Resetiosflags
  71:/usr/include/c++/14/iomanip ****   resetiosflags(ios_base::fmtflags __mask)
  72:/usr/include/c++/14/iomanip ****   { return { __mask }; }
  73:/usr/include/c++/14/iomanip **** 
  74:/usr/include/c++/14/iomanip ****   template<typename _CharT, typename _Traits>
  75:/usr/include/c++/14/iomanip ****     inline basic_istream<_CharT, _Traits>&
  76:/usr/include/c++/14/iomanip ****     operator>>(basic_istream<_CharT, _Traits>& __is, _Resetiosflags __f)
  77:/usr/include/c++/14/iomanip ****     {
  78:/usr/include/c++/14/iomanip ****       __is.setf(ios_base::fmtflags(0), __f._M_mask);
  79:/usr/include/c++/14/iomanip ****       return __is;
  80:/usr/include/c++/14/iomanip ****     }
  81:/usr/include/c++/14/iomanip **** 
  82:/usr/include/c++/14/iomanip ****   template<typename _CharT, typename _Traits>
  83:/usr/include/c++/14/iomanip ****     inline basic_ostream<_CharT, _Traits>&
  84:/usr/include/c++/14/iomanip ****     operator<<(basic_ostream<_CharT, _Traits>& __os, _Resetiosflags __f)
  85:/usr/include/c++/14/iomanip ****     {
  86:/usr/include/c++/14/iomanip ****       __os.setf(ios_base::fmtflags(0), __f._M_mask);
  87:/usr/include/c++/14/iomanip ****       return __os;
  88:/usr/include/c++/14/iomanip ****     }
  89:/usr/include/c++/14/iomanip **** 
  90:/usr/include/c++/14/iomanip **** 
  91:/usr/include/c++/14/iomanip ****   struct _Setiosflags { ios_base::fmtflags _M_mask; };
  92:/usr/include/c++/14/iomanip **** 
  93:/usr/include/c++/14/iomanip ****   /**
  94:/usr/include/c++/14/iomanip ****    *  @brief  Manipulator for @c setf.
  95:/usr/include/c++/14/iomanip ****    *  @param  __mask  A format flags mask.
  96:/usr/include/c++/14/iomanip ****    *
  97:/usr/include/c++/14/iomanip ****    *  Sent to a stream object, this manipulator sets the format flags
  98:/usr/include/c++/14/iomanip ****    *  to @a __mask.
  99:/usr/include/c++/14/iomanip ****   */
 100:/usr/include/c++/14/iomanip ****   inline _Setiosflags
 101:/usr/include/c++/14/iomanip ****   setiosflags(ios_base::fmtflags __mask)
 102:/usr/include/c++/14/iomanip ****   { return { __mask }; }
 103:/usr/include/c++/14/iomanip **** 
 104:/usr/include/c++/14/iomanip ****   template<typename _CharT, typename _Traits>
 105:/usr/include/c++/14/iomanip ****     inline basic_istream<_CharT, _Traits>&
 106:/usr/include/c++/14/iomanip ****     operator>>(basic_istream<_CharT, _Traits>& __is, _Setiosflags __f)
 107:/usr/include/c++/14/iomanip ****     {
 108:/usr/include/c++/14/iomanip ****       __is.setf(__f._M_mask);
 109:/usr/include/c++/14/iomanip ****       return __is;
 110:/usr/include/c++/14/iomanip ****     }
 111:/usr/include/c++/14/iomanip **** 
 112:/usr/include/c++/14/iomanip ****   template<typename _CharT, typename _Traits>
 113:/usr/include/c++/14/iomanip ****     inline basic_ostream<_CharT, _Traits>&
 114:/usr/include/c++/14/iomanip ****     operator<<(basic_ostream<_CharT, _Traits>& __os, _Setiosflags __f)
 115:/usr/include/c++/14/iomanip ****     {
 116:/usr/include/c++/14/iomanip ****       __os.setf(__f._M_mask);
 117:/usr/include/c++/14/iomanip ****       return __os;
 118:/usr/include/c++/14/iomanip ****     }
 119:/usr/include/c++/14/iomanip **** 
 120:/usr/include/c++/14/iomanip **** 
 121:/usr/include/c++/14/iomanip ****   struct _Setbase { int _M_base; };
 122:/usr/include/c++/14/iomanip **** 
 123:/usr/include/c++/14/iomanip ****   /**
 124:/usr/include/c++/14/iomanip ****    *  @brief  Manipulator for @c setf.
GAS LISTING linobj/Ch02_03.s 			page 40


 125:/usr/include/c++/14/iomanip ****    *  @param  __base  A numeric base.
 126:/usr/include/c++/14/iomanip ****    *
 127:/usr/include/c++/14/iomanip ****    *  Sent to a stream object, this manipulator changes the
 128:/usr/include/c++/14/iomanip ****    *  @c ios_base::basefield flags to @c oct, @c dec, or @c hex when @a base
 129:/usr/include/c++/14/iomanip ****    *  is 8, 10, or 16, accordingly, and to 0 if @a __base is any other value.
 130:/usr/include/c++/14/iomanip ****   */
 131:/usr/include/c++/14/iomanip ****   inline _Setbase
 132:/usr/include/c++/14/iomanip ****   setbase(int __base)
 133:/usr/include/c++/14/iomanip ****   { return { __base }; }
 134:/usr/include/c++/14/iomanip **** 
 135:/usr/include/c++/14/iomanip ****   template<typename _CharT, typename _Traits>
 136:/usr/include/c++/14/iomanip ****     inline basic_istream<_CharT, _Traits>&
 137:/usr/include/c++/14/iomanip ****     operator>>(basic_istream<_CharT, _Traits>& __is, _Setbase __f)
 138:/usr/include/c++/14/iomanip ****     {
 139:/usr/include/c++/14/iomanip ****       __is.setf(__f._M_base ==  8 ? ios_base::oct :
 140:/usr/include/c++/14/iomanip **** 		__f._M_base == 10 ? ios_base::dec :
 141:/usr/include/c++/14/iomanip **** 		__f._M_base == 16 ? ios_base::hex :
 142:/usr/include/c++/14/iomanip **** 		ios_base::fmtflags(0), ios_base::basefield);
 143:/usr/include/c++/14/iomanip ****       return __is;
 144:/usr/include/c++/14/iomanip ****     }
 145:/usr/include/c++/14/iomanip **** 
 146:/usr/include/c++/14/iomanip ****   template<typename _CharT, typename _Traits>
 147:/usr/include/c++/14/iomanip ****     inline basic_ostream<_CharT, _Traits>&
 148:/usr/include/c++/14/iomanip ****     operator<<(basic_ostream<_CharT, _Traits>& __os, _Setbase __f)
 149:/usr/include/c++/14/iomanip ****     {
 150:/usr/include/c++/14/iomanip ****       __os.setf(__f._M_base ==  8 ? ios_base::oct :
 151:/usr/include/c++/14/iomanip **** 		__f._M_base == 10 ? ios_base::dec :
 152:/usr/include/c++/14/iomanip **** 		__f._M_base == 16 ? ios_base::hex :
 153:/usr/include/c++/14/iomanip **** 		ios_base::fmtflags(0), ios_base::basefield);
 154:/usr/include/c++/14/iomanip ****       return __os;
 155:/usr/include/c++/14/iomanip ****     }
 156:/usr/include/c++/14/iomanip **** 
 157:/usr/include/c++/14/iomanip **** 
 158:/usr/include/c++/14/iomanip ****   template<typename _CharT>
 159:/usr/include/c++/14/iomanip ****     struct _Setfill { _CharT _M_c; };
 160:/usr/include/c++/14/iomanip **** 
 161:/usr/include/c++/14/iomanip ****   /**
 162:/usr/include/c++/14/iomanip ****    *  @brief  Manipulator for @c fill.
 163:/usr/include/c++/14/iomanip ****    *  @param  __c  The new fill character.
 164:/usr/include/c++/14/iomanip ****    *
 165:/usr/include/c++/14/iomanip ****    *  Sent to a stream object, this manipulator calls @c fill(__c) for that
 166:/usr/include/c++/14/iomanip ****    *  object.
 167:/usr/include/c++/14/iomanip ****   */
 168:/usr/include/c++/14/iomanip ****   template<typename _CharT>
 169:/usr/include/c++/14/iomanip ****     inline _Setfill<_CharT>
 170:/usr/include/c++/14/iomanip ****     setfill(_CharT __c)
 171:/usr/include/c++/14/iomanip ****     { return { __c }; }
 172:/usr/include/c++/14/iomanip **** 
 173:/usr/include/c++/14/iomanip ****   template<typename _CharT, typename _Traits>
 174:/usr/include/c++/14/iomanip ****     __attribute__((__deprecated__("'std::setfill' should only be used with "
 175:/usr/include/c++/14/iomanip **** 				  "output streams")))
 176:/usr/include/c++/14/iomanip ****     inline basic_istream<_CharT, _Traits>&
 177:/usr/include/c++/14/iomanip ****     operator>>(basic_istream<_CharT, _Traits>& __is, _Setfill<_CharT> __f)
 178:/usr/include/c++/14/iomanip ****     {
 179:/usr/include/c++/14/iomanip ****       __is.fill(__f._M_c);
 180:/usr/include/c++/14/iomanip ****       return __is;
 181:/usr/include/c++/14/iomanip ****     }
GAS LISTING linobj/Ch02_03.s 			page 41


 182:/usr/include/c++/14/iomanip **** 
 183:/usr/include/c++/14/iomanip ****   template<typename _CharT, typename _Traits>
 184:/usr/include/c++/14/iomanip ****     inline basic_ostream<_CharT, _Traits>&
 185:/usr/include/c++/14/iomanip ****     operator<<(basic_ostream<_CharT, _Traits>& __os, _Setfill<_CharT> __f)
 186:/usr/include/c++/14/iomanip ****     {
 187:/usr/include/c++/14/iomanip ****       __os.fill(__f._M_c);
 188:/usr/include/c++/14/iomanip ****       return __os;
 189:/usr/include/c++/14/iomanip ****     }
 190:/usr/include/c++/14/iomanip **** 
 191:/usr/include/c++/14/iomanip **** 
 192:/usr/include/c++/14/iomanip ****   struct _Setprecision { int _M_n; };
 193:/usr/include/c++/14/iomanip **** 
 194:/usr/include/c++/14/iomanip ****   /**
 195:/usr/include/c++/14/iomanip ****    *  @brief  Manipulator for @c precision.
 196:/usr/include/c++/14/iomanip ****    *  @param  __n  The new precision.
 197:/usr/include/c++/14/iomanip ****    *
 198:/usr/include/c++/14/iomanip ****    *  Sent to a stream object, this manipulator calls @c precision(__n) for
 199:/usr/include/c++/14/iomanip ****    *  that object.
 200:/usr/include/c++/14/iomanip ****   */
 201:/usr/include/c++/14/iomanip ****   inline _Setprecision
 202:/usr/include/c++/14/iomanip ****   setprecision(int __n)
 203:/usr/include/c++/14/iomanip ****   { return { __n }; }
 204:/usr/include/c++/14/iomanip **** 
 205:/usr/include/c++/14/iomanip ****   template<typename _CharT, typename _Traits>
 206:/usr/include/c++/14/iomanip ****     inline basic_istream<_CharT, _Traits>&
 207:/usr/include/c++/14/iomanip ****     operator>>(basic_istream<_CharT, _Traits>& __is, _Setprecision __f)
 208:/usr/include/c++/14/iomanip ****     {
 209:/usr/include/c++/14/iomanip ****       __is.precision(__f._M_n);
 210:/usr/include/c++/14/iomanip ****       return __is;
 211:/usr/include/c++/14/iomanip ****     }
 212:/usr/include/c++/14/iomanip **** 
 213:/usr/include/c++/14/iomanip ****   template<typename _CharT, typename _Traits>
 214:/usr/include/c++/14/iomanip ****     inline basic_ostream<_CharT, _Traits>&
 215:/usr/include/c++/14/iomanip ****     operator<<(basic_ostream<_CharT, _Traits>& __os, _Setprecision __f)
 216:/usr/include/c++/14/iomanip ****     {
 217:/usr/include/c++/14/iomanip ****       __os.precision(__f._M_n);
 218:/usr/include/c++/14/iomanip ****       return __os;
 219:/usr/include/c++/14/iomanip ****     }
 220:/usr/include/c++/14/iomanip **** 
 221:/usr/include/c++/14/iomanip **** 
 222:/usr/include/c++/14/iomanip ****   struct _Setw { int _M_n; };
 223:/usr/include/c++/14/iomanip **** 
 224:/usr/include/c++/14/iomanip ****   /**
 225:/usr/include/c++/14/iomanip ****    *  @brief  Manipulator for @c width.
 226:/usr/include/c++/14/iomanip ****    *  @param  __n  The new width.
 227:/usr/include/c++/14/iomanip ****    *
 228:/usr/include/c++/14/iomanip ****    *  Sent to a stream object, this manipulator calls @c width(__n) for
 229:/usr/include/c++/14/iomanip ****    *  that object.
 230:/usr/include/c++/14/iomanip ****   */
 231:/usr/include/c++/14/iomanip ****   inline _Setw
 232:/usr/include/c++/14/iomanip ****   setw(int __n)
 233:/usr/include/c++/14/iomanip ****   { return { __n }; }
 234:/usr/include/c++/14/iomanip **** 
 235:/usr/include/c++/14/iomanip ****   template<typename _CharT, typename _Traits>
 236:/usr/include/c++/14/iomanip ****     inline basic_istream<_CharT, _Traits>&
 237:/usr/include/c++/14/iomanip ****     operator>>(basic_istream<_CharT, _Traits>& __is, _Setw __f)
 238:/usr/include/c++/14/iomanip ****     {
GAS LISTING linobj/Ch02_03.s 			page 42


 239:/usr/include/c++/14/iomanip ****       __is.width(__f._M_n);
 240:/usr/include/c++/14/iomanip ****       return __is;
 241:/usr/include/c++/14/iomanip ****     }
 242:/usr/include/c++/14/iomanip **** 
 243:/usr/include/c++/14/iomanip ****   template<typename _CharT, typename _Traits>
 244:/usr/include/c++/14/iomanip ****     inline basic_ostream<_CharT, _Traits>&
 245:/usr/include/c++/14/iomanip ****     operator<<(basic_ostream<_CharT, _Traits>& __os, _Setw __f)
 286              		.loc 6 245 5 is_stmt 1 view .LVU71
 287              	.LBB718:
 288              	.LBB719:
 289              	.LBI719:
 290              		.file 7 "/usr/include/c++/14/bits/ios_base.h"
   1:/usr/include/c++/14/bits/ios_base.h **** // Iostreams base classes -*- C++ -*-
   2:/usr/include/c++/14/bits/ios_base.h **** 
   3:/usr/include/c++/14/bits/ios_base.h **** // Copyright (C) 1997-2024 Free Software Foundation, Inc.
   4:/usr/include/c++/14/bits/ios_base.h **** //
   5:/usr/include/c++/14/bits/ios_base.h **** // This file is part of the GNU ISO C++ Library.  This library is free
   6:/usr/include/c++/14/bits/ios_base.h **** // software; you can redistribute it and/or modify it under the
   7:/usr/include/c++/14/bits/ios_base.h **** // terms of the GNU General Public License as published by the
   8:/usr/include/c++/14/bits/ios_base.h **** // Free Software Foundation; either version 3, or (at your option)
   9:/usr/include/c++/14/bits/ios_base.h **** // any later version.
  10:/usr/include/c++/14/bits/ios_base.h **** 
  11:/usr/include/c++/14/bits/ios_base.h **** // This library is distributed in the hope that it will be useful,
  12:/usr/include/c++/14/bits/ios_base.h **** // but WITHOUT ANY WARRANTY; without even the implied warranty of
  13:/usr/include/c++/14/bits/ios_base.h **** // MERCHANTABILITY or FITNESS FOR A PARTICULAR PURPOSE.  See the
  14:/usr/include/c++/14/bits/ios_base.h **** // GNU General Public License for more details.
  15:/usr/include/c++/14/bits/ios_base.h **** 
  16:/usr/include/c++/14/bits/ios_base.h **** // Under Section 7 of GPL version 3, you are granted additional
  17:/usr/include/c++/14/bits/ios_base.h **** // permissions described in the GCC Runtime Library Exception, version
  18:/usr/include/c++/14/bits/ios_base.h **** // 3.1, as published by the Free Software Foundation.
  19:/usr/include/c++/14/bits/ios_base.h **** 
  20:/usr/include/c++/14/bits/ios_base.h **** // You should have received a copy of the GNU General Public License and
  21:/usr/include/c++/14/bits/ios_base.h **** // a copy of the GCC Runtime Library Exception along with this program;
  22:/usr/include/c++/14/bits/ios_base.h **** // see the files COPYING3 and COPYING.RUNTIME respectively.  If not, see
  23:/usr/include/c++/14/bits/ios_base.h **** // <http://www.gnu.org/licenses/>.
  24:/usr/include/c++/14/bits/ios_base.h **** 
  25:/usr/include/c++/14/bits/ios_base.h **** /** @file bits/ios_base.h
  26:/usr/include/c++/14/bits/ios_base.h ****  *  This is an internal header file, included by other library headers.
  27:/usr/include/c++/14/bits/ios_base.h ****  *  Do not attempt to use it directly. @headername{ios}
  28:/usr/include/c++/14/bits/ios_base.h ****  */
  29:/usr/include/c++/14/bits/ios_base.h **** 
  30:/usr/include/c++/14/bits/ios_base.h **** //
  31:/usr/include/c++/14/bits/ios_base.h **** // ISO C++ 14882: 27.4  Iostreams base classes
  32:/usr/include/c++/14/bits/ios_base.h **** //
  33:/usr/include/c++/14/bits/ios_base.h **** 
  34:/usr/include/c++/14/bits/ios_base.h **** #ifndef _IOS_BASE_H
  35:/usr/include/c++/14/bits/ios_base.h **** #define _IOS_BASE_H 1
  36:/usr/include/c++/14/bits/ios_base.h **** 
  37:/usr/include/c++/14/bits/ios_base.h **** #pragma GCC system_header
  38:/usr/include/c++/14/bits/ios_base.h **** 
  39:/usr/include/c++/14/bits/ios_base.h **** #include <ext/atomicity.h>
  40:/usr/include/c++/14/bits/ios_base.h **** #include <bits/localefwd.h>
  41:/usr/include/c++/14/bits/ios_base.h **** #include <bits/locale_classes.h>
  42:/usr/include/c++/14/bits/ios_base.h **** 
  43:/usr/include/c++/14/bits/ios_base.h **** #if __cplusplus < 201103L
  44:/usr/include/c++/14/bits/ios_base.h **** # include <stdexcept>
  45:/usr/include/c++/14/bits/ios_base.h **** #else
GAS LISTING linobj/Ch02_03.s 			page 43


  46:/usr/include/c++/14/bits/ios_base.h **** # include <system_error>
  47:/usr/include/c++/14/bits/ios_base.h **** #endif
  48:/usr/include/c++/14/bits/ios_base.h **** 
  49:/usr/include/c++/14/bits/ios_base.h **** namespace std _GLIBCXX_VISIBILITY(default)
  50:/usr/include/c++/14/bits/ios_base.h **** {
  51:/usr/include/c++/14/bits/ios_base.h **** _GLIBCXX_BEGIN_NAMESPACE_VERSION
  52:/usr/include/c++/14/bits/ios_base.h **** 
  53:/usr/include/c++/14/bits/ios_base.h ****   // The following definitions of bitmask types are enums, not ints,
  54:/usr/include/c++/14/bits/ios_base.h ****   // as permitted (but not required) in the standard, in order to provide
  55:/usr/include/c++/14/bits/ios_base.h ****   // better type safety in iostream calls.  A side effect is that in C++98
  56:/usr/include/c++/14/bits/ios_base.h ****   // expressions involving them are not compile-time constants.
  57:/usr/include/c++/14/bits/ios_base.h ****   enum _Ios_Fmtflags 
  58:/usr/include/c++/14/bits/ios_base.h ****     { 
  59:/usr/include/c++/14/bits/ios_base.h ****       _S_boolalpha 	= 1L << 0,
  60:/usr/include/c++/14/bits/ios_base.h ****       _S_dec 		= 1L << 1,
  61:/usr/include/c++/14/bits/ios_base.h ****       _S_fixed 		= 1L << 2,
  62:/usr/include/c++/14/bits/ios_base.h ****       _S_hex 		= 1L << 3,
  63:/usr/include/c++/14/bits/ios_base.h ****       _S_internal 	= 1L << 4,
  64:/usr/include/c++/14/bits/ios_base.h ****       _S_left 		= 1L << 5,
  65:/usr/include/c++/14/bits/ios_base.h ****       _S_oct 		= 1L << 6,
  66:/usr/include/c++/14/bits/ios_base.h ****       _S_right 		= 1L << 7,
  67:/usr/include/c++/14/bits/ios_base.h ****       _S_scientific 	= 1L << 8,
  68:/usr/include/c++/14/bits/ios_base.h ****       _S_showbase 	= 1L << 9,
  69:/usr/include/c++/14/bits/ios_base.h ****       _S_showpoint 	= 1L << 10,
  70:/usr/include/c++/14/bits/ios_base.h ****       _S_showpos 	= 1L << 11,
  71:/usr/include/c++/14/bits/ios_base.h ****       _S_skipws 	= 1L << 12,
  72:/usr/include/c++/14/bits/ios_base.h ****       _S_unitbuf 	= 1L << 13,
  73:/usr/include/c++/14/bits/ios_base.h ****       _S_uppercase 	= 1L << 14,
  74:/usr/include/c++/14/bits/ios_base.h ****       _S_adjustfield 	= _S_left | _S_right | _S_internal,
  75:/usr/include/c++/14/bits/ios_base.h ****       _S_basefield 	= _S_dec | _S_oct | _S_hex,
  76:/usr/include/c++/14/bits/ios_base.h ****       _S_floatfield 	= _S_scientific | _S_fixed,
  77:/usr/include/c++/14/bits/ios_base.h ****       _S_ios_fmtflags_end = 1L << 16,
  78:/usr/include/c++/14/bits/ios_base.h ****       _S_ios_fmtflags_max = __INT_MAX__,
  79:/usr/include/c++/14/bits/ios_base.h ****       _S_ios_fmtflags_min = ~__INT_MAX__
  80:/usr/include/c++/14/bits/ios_base.h ****     };
  81:/usr/include/c++/14/bits/ios_base.h **** 
  82:/usr/include/c++/14/bits/ios_base.h ****   _GLIBCXX_NODISCARD _GLIBCXX_CONSTEXPR
  83:/usr/include/c++/14/bits/ios_base.h ****   inline _Ios_Fmtflags
  84:/usr/include/c++/14/bits/ios_base.h ****   operator&(_Ios_Fmtflags __a, _Ios_Fmtflags __b) _GLIBCXX_NOTHROW
  85:/usr/include/c++/14/bits/ios_base.h ****   { return _Ios_Fmtflags(static_cast<int>(__a) & static_cast<int>(__b)); }
  86:/usr/include/c++/14/bits/ios_base.h **** 
  87:/usr/include/c++/14/bits/ios_base.h ****   _GLIBCXX_NODISCARD _GLIBCXX_CONSTEXPR
  88:/usr/include/c++/14/bits/ios_base.h ****   inline _Ios_Fmtflags
  89:/usr/include/c++/14/bits/ios_base.h ****   operator|(_Ios_Fmtflags __a, _Ios_Fmtflags __b) _GLIBCXX_NOTHROW
  90:/usr/include/c++/14/bits/ios_base.h ****   { return _Ios_Fmtflags(static_cast<int>(__a) | static_cast<int>(__b)); }
  91:/usr/include/c++/14/bits/ios_base.h **** 
  92:/usr/include/c++/14/bits/ios_base.h ****   _GLIBCXX_NODISCARD _GLIBCXX_CONSTEXPR
  93:/usr/include/c++/14/bits/ios_base.h ****   inline _Ios_Fmtflags
  94:/usr/include/c++/14/bits/ios_base.h ****   operator^(_Ios_Fmtflags __a, _Ios_Fmtflags __b) _GLIBCXX_NOTHROW
  95:/usr/include/c++/14/bits/ios_base.h ****   { return _Ios_Fmtflags(static_cast<int>(__a) ^ static_cast<int>(__b)); }
  96:/usr/include/c++/14/bits/ios_base.h **** 
  97:/usr/include/c++/14/bits/ios_base.h ****   _GLIBCXX_NODISCARD _GLIBCXX_CONSTEXPR
  98:/usr/include/c++/14/bits/ios_base.h ****   inline _Ios_Fmtflags
  99:/usr/include/c++/14/bits/ios_base.h ****   operator~(_Ios_Fmtflags __a) _GLIBCXX_NOTHROW
 100:/usr/include/c++/14/bits/ios_base.h ****   { return _Ios_Fmtflags(~static_cast<int>(__a)); }
 101:/usr/include/c++/14/bits/ios_base.h **** 
 102:/usr/include/c++/14/bits/ios_base.h ****   _GLIBCXX14_CONSTEXPR
GAS LISTING linobj/Ch02_03.s 			page 44


 103:/usr/include/c++/14/bits/ios_base.h ****   inline const _Ios_Fmtflags&
 104:/usr/include/c++/14/bits/ios_base.h ****   operator|=(_Ios_Fmtflags& __a, _Ios_Fmtflags __b) _GLIBCXX_NOTHROW
 105:/usr/include/c++/14/bits/ios_base.h ****   { return __a = __a | __b; }
 106:/usr/include/c++/14/bits/ios_base.h **** 
 107:/usr/include/c++/14/bits/ios_base.h ****   _GLIBCXX14_CONSTEXPR
 108:/usr/include/c++/14/bits/ios_base.h ****   inline const _Ios_Fmtflags&
 109:/usr/include/c++/14/bits/ios_base.h ****   operator&=(_Ios_Fmtflags& __a, _Ios_Fmtflags __b) _GLIBCXX_NOTHROW
 110:/usr/include/c++/14/bits/ios_base.h ****   { return __a = __a & __b; }
 111:/usr/include/c++/14/bits/ios_base.h **** 
 112:/usr/include/c++/14/bits/ios_base.h ****   _GLIBCXX14_CONSTEXPR
 113:/usr/include/c++/14/bits/ios_base.h ****   inline const _Ios_Fmtflags&
 114:/usr/include/c++/14/bits/ios_base.h ****   operator^=(_Ios_Fmtflags& __a, _Ios_Fmtflags __b) _GLIBCXX_NOTHROW
 115:/usr/include/c++/14/bits/ios_base.h ****   { return __a = __a ^ __b; }
 116:/usr/include/c++/14/bits/ios_base.h **** 
 117:/usr/include/c++/14/bits/ios_base.h **** 
 118:/usr/include/c++/14/bits/ios_base.h ****   enum _Ios_Openmode 
 119:/usr/include/c++/14/bits/ios_base.h ****     { 
 120:/usr/include/c++/14/bits/ios_base.h ****       _S_app 		= 1L << 0,
 121:/usr/include/c++/14/bits/ios_base.h ****       _S_ate 		= 1L << 1,
 122:/usr/include/c++/14/bits/ios_base.h ****       _S_bin 		= 1L << 2,
 123:/usr/include/c++/14/bits/ios_base.h ****       _S_in 		= 1L << 3,
 124:/usr/include/c++/14/bits/ios_base.h ****       _S_out 		= 1L << 4,
 125:/usr/include/c++/14/bits/ios_base.h ****       _S_trunc 		= 1L << 5,
 126:/usr/include/c++/14/bits/ios_base.h ****       _S_noreplace 	= 1L << 6,
 127:/usr/include/c++/14/bits/ios_base.h ****       _S_ios_openmode_end = 1L << 16,
 128:/usr/include/c++/14/bits/ios_base.h ****       _S_ios_openmode_max = __INT_MAX__,
 129:/usr/include/c++/14/bits/ios_base.h ****       _S_ios_openmode_min = ~__INT_MAX__
 130:/usr/include/c++/14/bits/ios_base.h ****     };
 131:/usr/include/c++/14/bits/ios_base.h **** 
 132:/usr/include/c++/14/bits/ios_base.h ****   _GLIBCXX_NODISCARD _GLIBCXX_CONSTEXPR
 133:/usr/include/c++/14/bits/ios_base.h ****   inline _Ios_Openmode
 134:/usr/include/c++/14/bits/ios_base.h ****   operator&(_Ios_Openmode __a, _Ios_Openmode __b) _GLIBCXX_NOTHROW
 135:/usr/include/c++/14/bits/ios_base.h ****   { return _Ios_Openmode(static_cast<int>(__a) & static_cast<int>(__b)); }
 136:/usr/include/c++/14/bits/ios_base.h **** 
 137:/usr/include/c++/14/bits/ios_base.h ****   _GLIBCXX_NODISCARD _GLIBCXX_CONSTEXPR
 138:/usr/include/c++/14/bits/ios_base.h ****   inline _Ios_Openmode
 139:/usr/include/c++/14/bits/ios_base.h ****   operator|(_Ios_Openmode __a, _Ios_Openmode __b) _GLIBCXX_NOTHROW
 140:/usr/include/c++/14/bits/ios_base.h ****   { return _Ios_Openmode(static_cast<int>(__a) | static_cast<int>(__b)); }
 141:/usr/include/c++/14/bits/ios_base.h **** 
 142:/usr/include/c++/14/bits/ios_base.h ****   _GLIBCXX_NODISCARD _GLIBCXX_CONSTEXPR
 143:/usr/include/c++/14/bits/ios_base.h ****   inline _Ios_Openmode
 144:/usr/include/c++/14/bits/ios_base.h ****   operator^(_Ios_Openmode __a, _Ios_Openmode __b) _GLIBCXX_NOTHROW
 145:/usr/include/c++/14/bits/ios_base.h ****   { return _Ios_Openmode(static_cast<int>(__a) ^ static_cast<int>(__b)); }
 146:/usr/include/c++/14/bits/ios_base.h **** 
 147:/usr/include/c++/14/bits/ios_base.h ****   _GLIBCXX_NODISCARD _GLIBCXX_CONSTEXPR
 148:/usr/include/c++/14/bits/ios_base.h ****   inline _Ios_Openmode
 149:/usr/include/c++/14/bits/ios_base.h ****   operator~(_Ios_Openmode __a) _GLIBCXX_NOTHROW
 150:/usr/include/c++/14/bits/ios_base.h ****   { return _Ios_Openmode(~static_cast<int>(__a)); }
 151:/usr/include/c++/14/bits/ios_base.h **** 
 152:/usr/include/c++/14/bits/ios_base.h ****   _GLIBCXX14_CONSTEXPR
 153:/usr/include/c++/14/bits/ios_base.h ****   inline const _Ios_Openmode&
 154:/usr/include/c++/14/bits/ios_base.h ****   operator|=(_Ios_Openmode& __a, _Ios_Openmode __b) _GLIBCXX_NOTHROW
 155:/usr/include/c++/14/bits/ios_base.h ****   { return __a = __a | __b; }
 156:/usr/include/c++/14/bits/ios_base.h **** 
 157:/usr/include/c++/14/bits/ios_base.h ****   _GLIBCXX14_CONSTEXPR
 158:/usr/include/c++/14/bits/ios_base.h ****   inline const _Ios_Openmode&
 159:/usr/include/c++/14/bits/ios_base.h ****   operator&=(_Ios_Openmode& __a, _Ios_Openmode __b) _GLIBCXX_NOTHROW
GAS LISTING linobj/Ch02_03.s 			page 45


 160:/usr/include/c++/14/bits/ios_base.h ****   { return __a = __a & __b; }
 161:/usr/include/c++/14/bits/ios_base.h **** 
 162:/usr/include/c++/14/bits/ios_base.h ****   _GLIBCXX14_CONSTEXPR
 163:/usr/include/c++/14/bits/ios_base.h ****   inline const _Ios_Openmode&
 164:/usr/include/c++/14/bits/ios_base.h ****   operator^=(_Ios_Openmode& __a, _Ios_Openmode __b) _GLIBCXX_NOTHROW
 165:/usr/include/c++/14/bits/ios_base.h ****   { return __a = __a ^ __b; }
 166:/usr/include/c++/14/bits/ios_base.h **** 
 167:/usr/include/c++/14/bits/ios_base.h **** 
 168:/usr/include/c++/14/bits/ios_base.h ****   enum _Ios_Iostate
 169:/usr/include/c++/14/bits/ios_base.h ****     { 
 170:/usr/include/c++/14/bits/ios_base.h ****       _S_goodbit 		= 0,
 171:/usr/include/c++/14/bits/ios_base.h ****       _S_badbit 		= 1L << 0,
 172:/usr/include/c++/14/bits/ios_base.h ****       _S_eofbit 		= 1L << 1,
 173:/usr/include/c++/14/bits/ios_base.h ****       _S_failbit		= 1L << 2,
 174:/usr/include/c++/14/bits/ios_base.h ****       _S_ios_iostate_end = 1L << 16,
 175:/usr/include/c++/14/bits/ios_base.h ****       _S_ios_iostate_max = __INT_MAX__,
 176:/usr/include/c++/14/bits/ios_base.h ****       _S_ios_iostate_min = ~__INT_MAX__
 177:/usr/include/c++/14/bits/ios_base.h ****     };
 178:/usr/include/c++/14/bits/ios_base.h **** 
 179:/usr/include/c++/14/bits/ios_base.h ****   _GLIBCXX_NODISCARD _GLIBCXX_CONSTEXPR
 180:/usr/include/c++/14/bits/ios_base.h ****   inline _Ios_Iostate
 181:/usr/include/c++/14/bits/ios_base.h ****   operator&(_Ios_Iostate __a, _Ios_Iostate __b) _GLIBCXX_NOTHROW
 182:/usr/include/c++/14/bits/ios_base.h ****   { return _Ios_Iostate(static_cast<int>(__a) & static_cast<int>(__b)); }
 183:/usr/include/c++/14/bits/ios_base.h **** 
 184:/usr/include/c++/14/bits/ios_base.h ****   _GLIBCXX_NODISCARD _GLIBCXX_CONSTEXPR
 185:/usr/include/c++/14/bits/ios_base.h ****   inline _Ios_Iostate
 186:/usr/include/c++/14/bits/ios_base.h ****   operator|(_Ios_Iostate __a, _Ios_Iostate __b) _GLIBCXX_NOTHROW
 187:/usr/include/c++/14/bits/ios_base.h ****   { return _Ios_Iostate(static_cast<int>(__a) | static_cast<int>(__b)); }
 188:/usr/include/c++/14/bits/ios_base.h **** 
 189:/usr/include/c++/14/bits/ios_base.h ****   _GLIBCXX_NODISCARD _GLIBCXX_CONSTEXPR
 190:/usr/include/c++/14/bits/ios_base.h ****   inline _Ios_Iostate
 191:/usr/include/c++/14/bits/ios_base.h ****   operator^(_Ios_Iostate __a, _Ios_Iostate __b) _GLIBCXX_NOTHROW
 192:/usr/include/c++/14/bits/ios_base.h ****   { return _Ios_Iostate(static_cast<int>(__a) ^ static_cast<int>(__b)); }
 193:/usr/include/c++/14/bits/ios_base.h **** 
 194:/usr/include/c++/14/bits/ios_base.h ****   _GLIBCXX_NODISCARD _GLIBCXX_CONSTEXPR
 195:/usr/include/c++/14/bits/ios_base.h ****   inline _Ios_Iostate
 196:/usr/include/c++/14/bits/ios_base.h ****   operator~(_Ios_Iostate __a) _GLIBCXX_NOTHROW
 197:/usr/include/c++/14/bits/ios_base.h ****   { return _Ios_Iostate(~static_cast<int>(__a)); }
 198:/usr/include/c++/14/bits/ios_base.h **** 
 199:/usr/include/c++/14/bits/ios_base.h ****   _GLIBCXX14_CONSTEXPR
 200:/usr/include/c++/14/bits/ios_base.h ****   inline const _Ios_Iostate&
 201:/usr/include/c++/14/bits/ios_base.h ****   operator|=(_Ios_Iostate& __a, _Ios_Iostate __b) _GLIBCXX_NOTHROW
 202:/usr/include/c++/14/bits/ios_base.h ****   { return __a = __a | __b; }
 203:/usr/include/c++/14/bits/ios_base.h **** 
 204:/usr/include/c++/14/bits/ios_base.h ****   _GLIBCXX14_CONSTEXPR
 205:/usr/include/c++/14/bits/ios_base.h ****   inline const _Ios_Iostate&
 206:/usr/include/c++/14/bits/ios_base.h ****   operator&=(_Ios_Iostate& __a, _Ios_Iostate __b) _GLIBCXX_NOTHROW
 207:/usr/include/c++/14/bits/ios_base.h ****   { return __a = __a & __b; }
 208:/usr/include/c++/14/bits/ios_base.h **** 
 209:/usr/include/c++/14/bits/ios_base.h ****   _GLIBCXX14_CONSTEXPR
 210:/usr/include/c++/14/bits/ios_base.h ****   inline const _Ios_Iostate&
 211:/usr/include/c++/14/bits/ios_base.h ****   operator^=(_Ios_Iostate& __a, _Ios_Iostate __b) _GLIBCXX_NOTHROW
 212:/usr/include/c++/14/bits/ios_base.h ****   { return __a = __a ^ __b; }
 213:/usr/include/c++/14/bits/ios_base.h **** 
 214:/usr/include/c++/14/bits/ios_base.h **** 
 215:/usr/include/c++/14/bits/ios_base.h ****   enum _Ios_Seekdir 
 216:/usr/include/c++/14/bits/ios_base.h ****     { 
GAS LISTING linobj/Ch02_03.s 			page 46


 217:/usr/include/c++/14/bits/ios_base.h ****       _S_beg = 0,
 218:/usr/include/c++/14/bits/ios_base.h ****       _S_cur = _GLIBCXX_STDIO_SEEK_CUR,
 219:/usr/include/c++/14/bits/ios_base.h ****       _S_end = _GLIBCXX_STDIO_SEEK_END,
 220:/usr/include/c++/14/bits/ios_base.h ****       _S_ios_seekdir_end = 1L << 16 
 221:/usr/include/c++/14/bits/ios_base.h ****     };
 222:/usr/include/c++/14/bits/ios_base.h **** 
 223:/usr/include/c++/14/bits/ios_base.h **** #if __cplusplus >= 201103L
 224:/usr/include/c++/14/bits/ios_base.h ****   /// I/O error code
 225:/usr/include/c++/14/bits/ios_base.h ****   enum class io_errc { stream = 1 };
 226:/usr/include/c++/14/bits/ios_base.h **** 
 227:/usr/include/c++/14/bits/ios_base.h ****   template <> struct is_error_code_enum<io_errc> : public true_type { };
 228:/usr/include/c++/14/bits/ios_base.h **** 
 229:/usr/include/c++/14/bits/ios_base.h ****   [[__nodiscard__, __gnu__::__const__]]
 230:/usr/include/c++/14/bits/ios_base.h ****   const error_category&
 231:/usr/include/c++/14/bits/ios_base.h ****   iostream_category() noexcept;
 232:/usr/include/c++/14/bits/ios_base.h **** 
 233:/usr/include/c++/14/bits/ios_base.h ****   [[__nodiscard__]]
 234:/usr/include/c++/14/bits/ios_base.h ****   inline error_code
 235:/usr/include/c++/14/bits/ios_base.h ****   make_error_code(io_errc __e) noexcept
 236:/usr/include/c++/14/bits/ios_base.h ****   { return error_code(static_cast<int>(__e), iostream_category()); }
 237:/usr/include/c++/14/bits/ios_base.h **** 
 238:/usr/include/c++/14/bits/ios_base.h ****   [[__nodiscard__]]
 239:/usr/include/c++/14/bits/ios_base.h ****   inline error_condition
 240:/usr/include/c++/14/bits/ios_base.h ****   make_error_condition(io_errc __e) noexcept
 241:/usr/include/c++/14/bits/ios_base.h ****   { return error_condition(static_cast<int>(__e), iostream_category()); }
 242:/usr/include/c++/14/bits/ios_base.h **** #endif
 243:/usr/include/c++/14/bits/ios_base.h **** 
 244:/usr/include/c++/14/bits/ios_base.h ****   // 27.4.2  Class ios_base
 245:/usr/include/c++/14/bits/ios_base.h ****   /**
 246:/usr/include/c++/14/bits/ios_base.h ****    *  @brief  The base of the I/O class hierarchy.
 247:/usr/include/c++/14/bits/ios_base.h ****    *  @ingroup io
 248:/usr/include/c++/14/bits/ios_base.h ****    *
 249:/usr/include/c++/14/bits/ios_base.h ****    *  This class defines everything that can be defined about I/O that does
 250:/usr/include/c++/14/bits/ios_base.h ****    *  not depend on the type of characters being input or output.  Most
 251:/usr/include/c++/14/bits/ios_base.h ****    *  people will only see @c ios_base when they need to specify the full
 252:/usr/include/c++/14/bits/ios_base.h ****    *  name of the various I/O flags (e.g., the openmodes).
 253:/usr/include/c++/14/bits/ios_base.h ****   */
 254:/usr/include/c++/14/bits/ios_base.h ****   class ios_base
 255:/usr/include/c++/14/bits/ios_base.h ****   {
 256:/usr/include/c++/14/bits/ios_base.h **** #if _GLIBCXX_USE_CXX11_ABI
 257:/usr/include/c++/14/bits/ios_base.h **** #if __cplusplus < 201103L
 258:/usr/include/c++/14/bits/ios_base.h ****     // Type that is layout-compatible with std::system_error
 259:/usr/include/c++/14/bits/ios_base.h ****     struct system_error : std::runtime_error
 260:/usr/include/c++/14/bits/ios_base.h ****     {
 261:/usr/include/c++/14/bits/ios_base.h ****       // Type that is layout-compatible with std::error_code
 262:/usr/include/c++/14/bits/ios_base.h ****       struct error_code
 263:/usr/include/c++/14/bits/ios_base.h ****       {
 264:/usr/include/c++/14/bits/ios_base.h **** 	error_code() { }
 265:/usr/include/c++/14/bits/ios_base.h ****       private:
 266:/usr/include/c++/14/bits/ios_base.h **** 	int		_M_value;
 267:/usr/include/c++/14/bits/ios_base.h **** 	const void*	_M_cat;
 268:/usr/include/c++/14/bits/ios_base.h ****       } _M_code;
 269:/usr/include/c++/14/bits/ios_base.h ****     };
 270:/usr/include/c++/14/bits/ios_base.h **** #endif
 271:/usr/include/c++/14/bits/ios_base.h **** #endif
 272:/usr/include/c++/14/bits/ios_base.h ****   public:
 273:/usr/include/c++/14/bits/ios_base.h **** 
GAS LISTING linobj/Ch02_03.s 			page 47


 274:/usr/include/c++/14/bits/ios_base.h ****     /** 
 275:/usr/include/c++/14/bits/ios_base.h ****      *  @brief These are thrown to indicate problems with io.
 276:/usr/include/c++/14/bits/ios_base.h ****      *  @ingroup exceptions
 277:/usr/include/c++/14/bits/ios_base.h ****      *
 278:/usr/include/c++/14/bits/ios_base.h ****      *  27.4.2.1.1  Class ios_base::failure
 279:/usr/include/c++/14/bits/ios_base.h ****      */
 280:/usr/include/c++/14/bits/ios_base.h **** #if _GLIBCXX_USE_CXX11_ABI
 281:/usr/include/c++/14/bits/ios_base.h ****     class _GLIBCXX_ABI_TAG_CXX11 failure : public system_error
 282:/usr/include/c++/14/bits/ios_base.h ****     {
 283:/usr/include/c++/14/bits/ios_base.h ****     public:
 284:/usr/include/c++/14/bits/ios_base.h ****       explicit
 285:/usr/include/c++/14/bits/ios_base.h ****       failure(const string& __str);
 286:/usr/include/c++/14/bits/ios_base.h **** 
 287:/usr/include/c++/14/bits/ios_base.h **** #if __cplusplus >= 201103L
 288:/usr/include/c++/14/bits/ios_base.h ****       explicit
 289:/usr/include/c++/14/bits/ios_base.h ****       failure(const string&, const error_code&);
 290:/usr/include/c++/14/bits/ios_base.h **** 
 291:/usr/include/c++/14/bits/ios_base.h ****       explicit
 292:/usr/include/c++/14/bits/ios_base.h ****       failure(const char*, const error_code& = io_errc::stream);
 293:/usr/include/c++/14/bits/ios_base.h **** #endif
 294:/usr/include/c++/14/bits/ios_base.h **** 
 295:/usr/include/c++/14/bits/ios_base.h ****       virtual
 296:/usr/include/c++/14/bits/ios_base.h ****       ~failure() throw();
 297:/usr/include/c++/14/bits/ios_base.h **** 
 298:/usr/include/c++/14/bits/ios_base.h ****       virtual const char*
 299:/usr/include/c++/14/bits/ios_base.h ****       what() const throw();
 300:/usr/include/c++/14/bits/ios_base.h ****     };
 301:/usr/include/c++/14/bits/ios_base.h **** #else
 302:/usr/include/c++/14/bits/ios_base.h ****     class failure : public exception
 303:/usr/include/c++/14/bits/ios_base.h ****     {
 304:/usr/include/c++/14/bits/ios_base.h ****     public:
 305:/usr/include/c++/14/bits/ios_base.h ****       // _GLIBCXX_RESOLVE_LIB_DEFECTS
 306:/usr/include/c++/14/bits/ios_base.h ****       // 48.  Use of non-existent exception constructor
 307:/usr/include/c++/14/bits/ios_base.h ****       explicit
 308:/usr/include/c++/14/bits/ios_base.h ****       failure(const string& __str) throw();
 309:/usr/include/c++/14/bits/ios_base.h **** 
 310:/usr/include/c++/14/bits/ios_base.h ****       // This declaration is not useless:
 311:/usr/include/c++/14/bits/ios_base.h ****       // http://gcc.gnu.org/onlinedocs/gcc-4.3.2/gcc/Vague-Linkage.html
 312:/usr/include/c++/14/bits/ios_base.h ****       virtual
 313:/usr/include/c++/14/bits/ios_base.h ****       ~failure() throw();
 314:/usr/include/c++/14/bits/ios_base.h **** 
 315:/usr/include/c++/14/bits/ios_base.h ****       virtual const char*
 316:/usr/include/c++/14/bits/ios_base.h ****       what() const throw();
 317:/usr/include/c++/14/bits/ios_base.h **** 
 318:/usr/include/c++/14/bits/ios_base.h **** #if __cplusplus >= 201103L
 319:/usr/include/c++/14/bits/ios_base.h ****       // Define the new members required by C++11,
 320:/usr/include/c++/14/bits/ios_base.h ****       // even though the error_code cannot be stored.
 321:/usr/include/c++/14/bits/ios_base.h **** 
 322:/usr/include/c++/14/bits/ios_base.h ****       explicit
 323:/usr/include/c++/14/bits/ios_base.h ****       failure(const string& __s, const error_code&) noexcept
 324:/usr/include/c++/14/bits/ios_base.h ****       : failure(__s)
 325:/usr/include/c++/14/bits/ios_base.h ****       { }
 326:/usr/include/c++/14/bits/ios_base.h **** 
 327:/usr/include/c++/14/bits/ios_base.h ****       explicit
 328:/usr/include/c++/14/bits/ios_base.h ****       failure(const char* __s, const error_code& = error_code{})
 329:/usr/include/c++/14/bits/ios_base.h ****       : failure(string(__s))
 330:/usr/include/c++/14/bits/ios_base.h ****       { }
GAS LISTING linobj/Ch02_03.s 			page 48


 331:/usr/include/c++/14/bits/ios_base.h **** 
 332:/usr/include/c++/14/bits/ios_base.h ****       // Stand-in for system_error::code() but returning by value.
 333:/usr/include/c++/14/bits/ios_base.h ****       error_code code() const noexcept { return error_code{}; }
 334:/usr/include/c++/14/bits/ios_base.h **** #endif
 335:/usr/include/c++/14/bits/ios_base.h **** 
 336:/usr/include/c++/14/bits/ios_base.h ****     private:
 337:/usr/include/c++/14/bits/ios_base.h ****       string _M_msg;
 338:/usr/include/c++/14/bits/ios_base.h ****     };
 339:/usr/include/c++/14/bits/ios_base.h **** #endif
 340:/usr/include/c++/14/bits/ios_base.h **** 
 341:/usr/include/c++/14/bits/ios_base.h ****     // 27.4.2.1.2  Type ios_base::fmtflags
 342:/usr/include/c++/14/bits/ios_base.h ****     /**
 343:/usr/include/c++/14/bits/ios_base.h ****      *  @brief This is a bitmask type.
 344:/usr/include/c++/14/bits/ios_base.h ****      *
 345:/usr/include/c++/14/bits/ios_base.h ****      *  @c @a _Ios_Fmtflags is implementation-defined, but it is valid to
 346:/usr/include/c++/14/bits/ios_base.h ****      *  perform bitwise operations on these values and expect the Right
 347:/usr/include/c++/14/bits/ios_base.h ****      *  Thing to happen.  Defined objects of type fmtflags are:
 348:/usr/include/c++/14/bits/ios_base.h ****      *  - boolalpha
 349:/usr/include/c++/14/bits/ios_base.h ****      *  - dec
 350:/usr/include/c++/14/bits/ios_base.h ****      *  - fixed
 351:/usr/include/c++/14/bits/ios_base.h ****      *  - hex
 352:/usr/include/c++/14/bits/ios_base.h ****      *  - internal
 353:/usr/include/c++/14/bits/ios_base.h ****      *  - left
 354:/usr/include/c++/14/bits/ios_base.h ****      *  - oct
 355:/usr/include/c++/14/bits/ios_base.h ****      *  - right
 356:/usr/include/c++/14/bits/ios_base.h ****      *  - scientific
 357:/usr/include/c++/14/bits/ios_base.h ****      *  - showbase
 358:/usr/include/c++/14/bits/ios_base.h ****      *  - showpoint
 359:/usr/include/c++/14/bits/ios_base.h ****      *  - showpos
 360:/usr/include/c++/14/bits/ios_base.h ****      *  - skipws
 361:/usr/include/c++/14/bits/ios_base.h ****      *  - unitbuf
 362:/usr/include/c++/14/bits/ios_base.h ****      *  - uppercase
 363:/usr/include/c++/14/bits/ios_base.h ****      *  - adjustfield
 364:/usr/include/c++/14/bits/ios_base.h ****      *  - basefield
 365:/usr/include/c++/14/bits/ios_base.h ****      *  - floatfield
 366:/usr/include/c++/14/bits/ios_base.h ****     */
 367:/usr/include/c++/14/bits/ios_base.h ****     typedef _Ios_Fmtflags fmtflags;
 368:/usr/include/c++/14/bits/ios_base.h **** 
 369:/usr/include/c++/14/bits/ios_base.h ****     /// Insert/extract @c bool in alphabetic rather than numeric format.
 370:/usr/include/c++/14/bits/ios_base.h ****     static const fmtflags boolalpha =   _S_boolalpha;
 371:/usr/include/c++/14/bits/ios_base.h **** 
 372:/usr/include/c++/14/bits/ios_base.h ****     /// Converts integer input or generates integer output in decimal base.
 373:/usr/include/c++/14/bits/ios_base.h ****     static const fmtflags dec =         _S_dec;
 374:/usr/include/c++/14/bits/ios_base.h **** 
 375:/usr/include/c++/14/bits/ios_base.h ****     /// Generate floating-point output in fixed-point notation.
 376:/usr/include/c++/14/bits/ios_base.h ****     static const fmtflags fixed =       _S_fixed;
 377:/usr/include/c++/14/bits/ios_base.h **** 
 378:/usr/include/c++/14/bits/ios_base.h ****     /// Converts integer input or generates integer output in hexadecimal base.
 379:/usr/include/c++/14/bits/ios_base.h ****     static const fmtflags hex =         _S_hex;
 380:/usr/include/c++/14/bits/ios_base.h **** 
 381:/usr/include/c++/14/bits/ios_base.h ****     /// Adds fill characters at a designated internal point in certain
 382:/usr/include/c++/14/bits/ios_base.h ****     /// generated output, or identical to @c right if no such point is
 383:/usr/include/c++/14/bits/ios_base.h ****     /// designated.
 384:/usr/include/c++/14/bits/ios_base.h ****     static const fmtflags internal =    _S_internal;
 385:/usr/include/c++/14/bits/ios_base.h **** 
 386:/usr/include/c++/14/bits/ios_base.h ****     /// Adds fill characters on the right (final positions) of certain
 387:/usr/include/c++/14/bits/ios_base.h ****     /// generated output.  (I.e., the thing you print is flush left.)
GAS LISTING linobj/Ch02_03.s 			page 49


 388:/usr/include/c++/14/bits/ios_base.h ****     static const fmtflags left =        _S_left;
 389:/usr/include/c++/14/bits/ios_base.h **** 
 390:/usr/include/c++/14/bits/ios_base.h ****     /// Converts integer input or generates integer output in octal base.
 391:/usr/include/c++/14/bits/ios_base.h ****     static const fmtflags oct =         _S_oct;
 392:/usr/include/c++/14/bits/ios_base.h **** 
 393:/usr/include/c++/14/bits/ios_base.h ****     /// Adds fill characters on the left (initial positions) of certain
 394:/usr/include/c++/14/bits/ios_base.h ****     /// generated output.  (I.e., the thing you print is flush right.)
 395:/usr/include/c++/14/bits/ios_base.h ****     static const fmtflags right =       _S_right;
 396:/usr/include/c++/14/bits/ios_base.h **** 
 397:/usr/include/c++/14/bits/ios_base.h ****     /// Generates floating-point output in scientific notation.
 398:/usr/include/c++/14/bits/ios_base.h ****     static const fmtflags scientific =  _S_scientific;
 399:/usr/include/c++/14/bits/ios_base.h **** 
 400:/usr/include/c++/14/bits/ios_base.h ****     /// Generates a prefix indicating the numeric base of generated integer
 401:/usr/include/c++/14/bits/ios_base.h ****     /// output.
 402:/usr/include/c++/14/bits/ios_base.h ****     static const fmtflags showbase =    _S_showbase;
 403:/usr/include/c++/14/bits/ios_base.h **** 
 404:/usr/include/c++/14/bits/ios_base.h ****     /// Generates a decimal-point character unconditionally in generated
 405:/usr/include/c++/14/bits/ios_base.h ****     /// floating-point output.
 406:/usr/include/c++/14/bits/ios_base.h ****     static const fmtflags showpoint =   _S_showpoint;
 407:/usr/include/c++/14/bits/ios_base.h **** 
 408:/usr/include/c++/14/bits/ios_base.h ****     /// Generates a + sign in non-negative generated numeric output.
 409:/usr/include/c++/14/bits/ios_base.h ****     static const fmtflags showpos =     _S_showpos;
 410:/usr/include/c++/14/bits/ios_base.h **** 
 411:/usr/include/c++/14/bits/ios_base.h ****     /// Skips leading white space before certain input operations.
 412:/usr/include/c++/14/bits/ios_base.h ****     static const fmtflags skipws =      _S_skipws;
 413:/usr/include/c++/14/bits/ios_base.h **** 
 414:/usr/include/c++/14/bits/ios_base.h ****     /// Flushes output after each output operation.
 415:/usr/include/c++/14/bits/ios_base.h ****     static const fmtflags unitbuf =     _S_unitbuf;
 416:/usr/include/c++/14/bits/ios_base.h **** 
 417:/usr/include/c++/14/bits/ios_base.h ****     /// Replaces certain lowercase letters with their uppercase equivalents
 418:/usr/include/c++/14/bits/ios_base.h ****     /// in generated output.
 419:/usr/include/c++/14/bits/ios_base.h ****     static const fmtflags uppercase =   _S_uppercase;
 420:/usr/include/c++/14/bits/ios_base.h **** 
 421:/usr/include/c++/14/bits/ios_base.h ****     /// A mask of left|right|internal.  Useful for the 2-arg form of @c setf.
 422:/usr/include/c++/14/bits/ios_base.h ****     static const fmtflags adjustfield = _S_adjustfield;
 423:/usr/include/c++/14/bits/ios_base.h **** 
 424:/usr/include/c++/14/bits/ios_base.h ****     /// A mask of dec|oct|hex.  Useful for the 2-arg form of @c setf.
 425:/usr/include/c++/14/bits/ios_base.h ****     static const fmtflags basefield =   _S_basefield;
 426:/usr/include/c++/14/bits/ios_base.h **** 
 427:/usr/include/c++/14/bits/ios_base.h ****     /// A mask of scientific|fixed.  Useful for the 2-arg form of @c setf.
 428:/usr/include/c++/14/bits/ios_base.h ****     static const fmtflags floatfield =  _S_floatfield;
 429:/usr/include/c++/14/bits/ios_base.h **** 
 430:/usr/include/c++/14/bits/ios_base.h ****     // 27.4.2.1.3  Type ios_base::iostate
 431:/usr/include/c++/14/bits/ios_base.h ****     /**
 432:/usr/include/c++/14/bits/ios_base.h ****      *  @brief This is a bitmask type.
 433:/usr/include/c++/14/bits/ios_base.h ****      *
 434:/usr/include/c++/14/bits/ios_base.h ****      *  @c @a _Ios_Iostate is implementation-defined, but it is valid to
 435:/usr/include/c++/14/bits/ios_base.h ****      *  perform bitwise operations on these values and expect the Right
 436:/usr/include/c++/14/bits/ios_base.h ****      *  Thing to happen.  Defined objects of type iostate are:
 437:/usr/include/c++/14/bits/ios_base.h ****      *  - badbit
 438:/usr/include/c++/14/bits/ios_base.h ****      *  - eofbit
 439:/usr/include/c++/14/bits/ios_base.h ****      *  - failbit
 440:/usr/include/c++/14/bits/ios_base.h ****      *  - goodbit
 441:/usr/include/c++/14/bits/ios_base.h ****     */
 442:/usr/include/c++/14/bits/ios_base.h ****     typedef _Ios_Iostate iostate;
 443:/usr/include/c++/14/bits/ios_base.h **** 
 444:/usr/include/c++/14/bits/ios_base.h ****     /// Indicates a loss of integrity in an input or output sequence (such
GAS LISTING linobj/Ch02_03.s 			page 50


 445:/usr/include/c++/14/bits/ios_base.h ****     /// as an irrecoverable read error from a file).
 446:/usr/include/c++/14/bits/ios_base.h ****     static const iostate badbit =	_S_badbit;
 447:/usr/include/c++/14/bits/ios_base.h **** 
 448:/usr/include/c++/14/bits/ios_base.h ****     /// Indicates that an input operation reached the end of an input sequence.
 449:/usr/include/c++/14/bits/ios_base.h ****     static const iostate eofbit =	_S_eofbit;
 450:/usr/include/c++/14/bits/ios_base.h **** 
 451:/usr/include/c++/14/bits/ios_base.h ****     /// Indicates that an input operation failed to read the expected
 452:/usr/include/c++/14/bits/ios_base.h ****     /// characters, or that an output operation failed to generate the
 453:/usr/include/c++/14/bits/ios_base.h ****     /// desired characters.
 454:/usr/include/c++/14/bits/ios_base.h ****     static const iostate failbit =	_S_failbit;
 455:/usr/include/c++/14/bits/ios_base.h **** 
 456:/usr/include/c++/14/bits/ios_base.h ****     /// Indicates all is well.
 457:/usr/include/c++/14/bits/ios_base.h ****     static const iostate goodbit =	_S_goodbit;
 458:/usr/include/c++/14/bits/ios_base.h **** 
 459:/usr/include/c++/14/bits/ios_base.h ****     // 27.4.2.1.4  Type ios_base::openmode
 460:/usr/include/c++/14/bits/ios_base.h ****     /**
 461:/usr/include/c++/14/bits/ios_base.h ****      *  @brief This is a bitmask type.
 462:/usr/include/c++/14/bits/ios_base.h ****      *
 463:/usr/include/c++/14/bits/ios_base.h ****      *  @c @a _Ios_Openmode is implementation-defined, but it is valid to
 464:/usr/include/c++/14/bits/ios_base.h ****      *  perform bitwise operations on these values and expect the Right
 465:/usr/include/c++/14/bits/ios_base.h ****      *  Thing to happen.  Defined objects of type openmode are:
 466:/usr/include/c++/14/bits/ios_base.h ****      *  - app
 467:/usr/include/c++/14/bits/ios_base.h ****      *  - ate
 468:/usr/include/c++/14/bits/ios_base.h ****      *  - binary
 469:/usr/include/c++/14/bits/ios_base.h ****      *  - in
 470:/usr/include/c++/14/bits/ios_base.h ****      *  - out
 471:/usr/include/c++/14/bits/ios_base.h ****      *  - trunc
 472:/usr/include/c++/14/bits/ios_base.h ****     */
 473:/usr/include/c++/14/bits/ios_base.h ****     typedef _Ios_Openmode openmode;
 474:/usr/include/c++/14/bits/ios_base.h **** 
 475:/usr/include/c++/14/bits/ios_base.h ****     /// Seek to end before each write.
 476:/usr/include/c++/14/bits/ios_base.h ****     static const openmode app =		_S_app;
 477:/usr/include/c++/14/bits/ios_base.h **** 
 478:/usr/include/c++/14/bits/ios_base.h ****     /// Open and seek to end immediately after opening.
 479:/usr/include/c++/14/bits/ios_base.h ****     static const openmode ate =		_S_ate;
 480:/usr/include/c++/14/bits/ios_base.h **** 
 481:/usr/include/c++/14/bits/ios_base.h ****     /// Perform input and output in binary mode (as opposed to text mode).
 482:/usr/include/c++/14/bits/ios_base.h ****     /// This is probably not what you think it is; see
 483:/usr/include/c++/14/bits/ios_base.h ****     /// https://gcc.gnu.org/onlinedocs/libstdc++/manual/fstreams.html#std.io.filestreams.binary
 484:/usr/include/c++/14/bits/ios_base.h ****     static const openmode binary =	_S_bin;
 485:/usr/include/c++/14/bits/ios_base.h **** 
 486:/usr/include/c++/14/bits/ios_base.h ****     /// Open for input.  Default for @c ifstream and fstream.
 487:/usr/include/c++/14/bits/ios_base.h ****     static const openmode in =		_S_in;
 488:/usr/include/c++/14/bits/ios_base.h **** 
 489:/usr/include/c++/14/bits/ios_base.h ****     /// Open for output.  Default for @c ofstream and fstream.
 490:/usr/include/c++/14/bits/ios_base.h ****     static const openmode out =		_S_out;
 491:/usr/include/c++/14/bits/ios_base.h **** 
 492:/usr/include/c++/14/bits/ios_base.h ****     /// Truncate an existing stream when opening.  Default for @c ofstream.
 493:/usr/include/c++/14/bits/ios_base.h ****     static const openmode trunc =	_S_trunc;
 494:/usr/include/c++/14/bits/ios_base.h **** 
 495:/usr/include/c++/14/bits/ios_base.h ****     static const openmode __noreplace =	_S_noreplace;
 496:/usr/include/c++/14/bits/ios_base.h **** 
 497:/usr/include/c++/14/bits/ios_base.h **** #ifdef __glibcxx_ios_noreplace // C++ >= 23 && HOSTED
 498:/usr/include/c++/14/bits/ios_base.h ****     /// Open a file in exclusive mode.
 499:/usr/include/c++/14/bits/ios_base.h ****     static const openmode noreplace =	_S_noreplace;
 500:/usr/include/c++/14/bits/ios_base.h **** #endif
 501:/usr/include/c++/14/bits/ios_base.h **** 
GAS LISTING linobj/Ch02_03.s 			page 51


 502:/usr/include/c++/14/bits/ios_base.h ****     // 27.4.2.1.5  Type ios_base::seekdir
 503:/usr/include/c++/14/bits/ios_base.h ****     /**
 504:/usr/include/c++/14/bits/ios_base.h ****      *  @brief This is an enumerated type.
 505:/usr/include/c++/14/bits/ios_base.h ****      *
 506:/usr/include/c++/14/bits/ios_base.h ****      *  @c @a _Ios_Seekdir is implementation-defined.  Defined values
 507:/usr/include/c++/14/bits/ios_base.h ****      *  of type seekdir are:
 508:/usr/include/c++/14/bits/ios_base.h ****      *  - beg
 509:/usr/include/c++/14/bits/ios_base.h ****      *  - cur, equivalent to @c SEEK_CUR in the C standard library.
 510:/usr/include/c++/14/bits/ios_base.h ****      *  - end, equivalent to @c SEEK_END in the C standard library.
 511:/usr/include/c++/14/bits/ios_base.h ****     */
 512:/usr/include/c++/14/bits/ios_base.h ****     typedef _Ios_Seekdir seekdir;
 513:/usr/include/c++/14/bits/ios_base.h **** 
 514:/usr/include/c++/14/bits/ios_base.h ****     /// Request a seek relative to the beginning of the stream.
 515:/usr/include/c++/14/bits/ios_base.h ****     static const seekdir beg =		_S_beg;
 516:/usr/include/c++/14/bits/ios_base.h **** 
 517:/usr/include/c++/14/bits/ios_base.h ****     /// Request a seek relative to the current position within the sequence.
 518:/usr/include/c++/14/bits/ios_base.h ****     static const seekdir cur =		_S_cur;
 519:/usr/include/c++/14/bits/ios_base.h **** 
 520:/usr/include/c++/14/bits/ios_base.h ****     /// Request a seek relative to the current end of the sequence.
 521:/usr/include/c++/14/bits/ios_base.h ****     static const seekdir end =		_S_end;
 522:/usr/include/c++/14/bits/ios_base.h **** 
 523:/usr/include/c++/14/bits/ios_base.h **** #if __cplusplus <= 201402L
 524:/usr/include/c++/14/bits/ios_base.h ****     // Annex D.6 (removed in C++17)
 525:/usr/include/c++/14/bits/ios_base.h ****     typedef int io_state
 526:/usr/include/c++/14/bits/ios_base.h ****       _GLIBCXX_DEPRECATED_SUGGEST("std::iostate");
 527:/usr/include/c++/14/bits/ios_base.h ****     typedef int open_mode
 528:/usr/include/c++/14/bits/ios_base.h ****       _GLIBCXX_DEPRECATED_SUGGEST("std::openmode");
 529:/usr/include/c++/14/bits/ios_base.h ****     typedef int seek_dir
 530:/usr/include/c++/14/bits/ios_base.h ****       _GLIBCXX_DEPRECATED_SUGGEST("std::seekdir");
 531:/usr/include/c++/14/bits/ios_base.h **** 
 532:/usr/include/c++/14/bits/ios_base.h ****     typedef std::streampos streampos
 533:/usr/include/c++/14/bits/ios_base.h ****       _GLIBCXX_DEPRECATED_SUGGEST("std::streampos");
 534:/usr/include/c++/14/bits/ios_base.h ****     typedef std::streamoff streamoff
 535:/usr/include/c++/14/bits/ios_base.h ****       _GLIBCXX_DEPRECATED_SUGGEST("std::streamoff");
 536:/usr/include/c++/14/bits/ios_base.h **** #endif
 537:/usr/include/c++/14/bits/ios_base.h **** 
 538:/usr/include/c++/14/bits/ios_base.h ****     // Callbacks;
 539:/usr/include/c++/14/bits/ios_base.h ****     /**
 540:/usr/include/c++/14/bits/ios_base.h ****      *  @brief  The set of events that may be passed to an event callback.
 541:/usr/include/c++/14/bits/ios_base.h ****      *
 542:/usr/include/c++/14/bits/ios_base.h ****      *  erase_event is used during ~ios() and copyfmt().  imbue_event is used
 543:/usr/include/c++/14/bits/ios_base.h ****      *  during imbue().  copyfmt_event is used during copyfmt().
 544:/usr/include/c++/14/bits/ios_base.h ****     */
 545:/usr/include/c++/14/bits/ios_base.h ****     enum event
 546:/usr/include/c++/14/bits/ios_base.h ****     {
 547:/usr/include/c++/14/bits/ios_base.h ****       erase_event,
 548:/usr/include/c++/14/bits/ios_base.h ****       imbue_event,
 549:/usr/include/c++/14/bits/ios_base.h ****       copyfmt_event
 550:/usr/include/c++/14/bits/ios_base.h ****     };
 551:/usr/include/c++/14/bits/ios_base.h **** 
 552:/usr/include/c++/14/bits/ios_base.h ****     /**
 553:/usr/include/c++/14/bits/ios_base.h ****      *  @brief  The type of an event callback function.
 554:/usr/include/c++/14/bits/ios_base.h ****      *  @param  __e  One of the members of the event enum.
 555:/usr/include/c++/14/bits/ios_base.h ****      *  @param  __b  Reference to the ios_base object.
 556:/usr/include/c++/14/bits/ios_base.h ****      *  @param  __i  The integer provided when the callback was registered.
 557:/usr/include/c++/14/bits/ios_base.h ****      *
 558:/usr/include/c++/14/bits/ios_base.h ****      *  Event callbacks are user defined functions that get called during
GAS LISTING linobj/Ch02_03.s 			page 52


 559:/usr/include/c++/14/bits/ios_base.h ****      *  several ios_base and basic_ios functions, specifically imbue(),
 560:/usr/include/c++/14/bits/ios_base.h ****      *  copyfmt(), and ~ios().
 561:/usr/include/c++/14/bits/ios_base.h ****     */
 562:/usr/include/c++/14/bits/ios_base.h ****     typedef void (*event_callback) (event __e, ios_base& __b, int __i);
 563:/usr/include/c++/14/bits/ios_base.h **** 
 564:/usr/include/c++/14/bits/ios_base.h ****     /**
 565:/usr/include/c++/14/bits/ios_base.h ****      *  @brief  Add the callback __fn with parameter __index.
 566:/usr/include/c++/14/bits/ios_base.h ****      *  @param  __fn  The function to add.
 567:/usr/include/c++/14/bits/ios_base.h ****      *  @param  __index  The integer to pass to the function when invoked.
 568:/usr/include/c++/14/bits/ios_base.h ****      *
 569:/usr/include/c++/14/bits/ios_base.h ****      *  Registers a function as an event callback with an integer parameter to
 570:/usr/include/c++/14/bits/ios_base.h ****      *  be passed to the function when invoked.  Multiple copies of the
 571:/usr/include/c++/14/bits/ios_base.h ****      *  function are allowed.  If there are multiple callbacks, they are
 572:/usr/include/c++/14/bits/ios_base.h ****      *  invoked in the order they were registered.
 573:/usr/include/c++/14/bits/ios_base.h ****     */
 574:/usr/include/c++/14/bits/ios_base.h ****     void
 575:/usr/include/c++/14/bits/ios_base.h ****     register_callback(event_callback __fn, int __index);
 576:/usr/include/c++/14/bits/ios_base.h **** 
 577:/usr/include/c++/14/bits/ios_base.h ****   protected:
 578:/usr/include/c++/14/bits/ios_base.h ****     streamsize		_M_precision;
 579:/usr/include/c++/14/bits/ios_base.h ****     streamsize		_M_width;
 580:/usr/include/c++/14/bits/ios_base.h ****     fmtflags		_M_flags;
 581:/usr/include/c++/14/bits/ios_base.h ****     iostate		_M_exception;
 582:/usr/include/c++/14/bits/ios_base.h ****     iostate		_M_streambuf_state;
 583:/usr/include/c++/14/bits/ios_base.h **** 
 584:/usr/include/c++/14/bits/ios_base.h ****     // 27.4.2.6  Members for callbacks
 585:/usr/include/c++/14/bits/ios_base.h ****     // 27.4.2.6  ios_base callbacks
 586:/usr/include/c++/14/bits/ios_base.h ****     struct _Callback_list
 587:/usr/include/c++/14/bits/ios_base.h ****     {
 588:/usr/include/c++/14/bits/ios_base.h ****       // Data Members
 589:/usr/include/c++/14/bits/ios_base.h ****       _Callback_list*		_M_next;
 590:/usr/include/c++/14/bits/ios_base.h ****       ios_base::event_callback	_M_fn;
 591:/usr/include/c++/14/bits/ios_base.h ****       int			_M_index;
 592:/usr/include/c++/14/bits/ios_base.h ****       _Atomic_word		_M_refcount;  // 0 means one reference.
 593:/usr/include/c++/14/bits/ios_base.h **** 
 594:/usr/include/c++/14/bits/ios_base.h ****       _Callback_list(ios_base::event_callback __fn, int __index,
 595:/usr/include/c++/14/bits/ios_base.h **** 		     _Callback_list* __cb)
 596:/usr/include/c++/14/bits/ios_base.h ****       : _M_next(__cb), _M_fn(__fn), _M_index(__index), _M_refcount(0) { }
 597:/usr/include/c++/14/bits/ios_base.h **** 
 598:/usr/include/c++/14/bits/ios_base.h ****       void
 599:/usr/include/c++/14/bits/ios_base.h ****       _M_add_reference() { __gnu_cxx::__atomic_add_dispatch(&_M_refcount, 1); }
 600:/usr/include/c++/14/bits/ios_base.h **** 
 601:/usr/include/c++/14/bits/ios_base.h ****       // 0 => OK to delete.
 602:/usr/include/c++/14/bits/ios_base.h ****       int
 603:/usr/include/c++/14/bits/ios_base.h ****       _M_remove_reference() 
 604:/usr/include/c++/14/bits/ios_base.h ****       {
 605:/usr/include/c++/14/bits/ios_base.h ****         // Be race-detector-friendly.  For more info see bits/c++config.
 606:/usr/include/c++/14/bits/ios_base.h ****         _GLIBCXX_SYNCHRONIZATION_HAPPENS_BEFORE(&_M_refcount);
 607:/usr/include/c++/14/bits/ios_base.h ****         int __res = __gnu_cxx::__exchange_and_add_dispatch(&_M_refcount, -1);
 608:/usr/include/c++/14/bits/ios_base.h ****         if (__res == 0)
 609:/usr/include/c++/14/bits/ios_base.h ****           {
 610:/usr/include/c++/14/bits/ios_base.h ****             _GLIBCXX_SYNCHRONIZATION_HAPPENS_AFTER(&_M_refcount);
 611:/usr/include/c++/14/bits/ios_base.h ****           }
 612:/usr/include/c++/14/bits/ios_base.h ****         return __res;
 613:/usr/include/c++/14/bits/ios_base.h ****       }
 614:/usr/include/c++/14/bits/ios_base.h ****     };
 615:/usr/include/c++/14/bits/ios_base.h **** 
GAS LISTING linobj/Ch02_03.s 			page 53


 616:/usr/include/c++/14/bits/ios_base.h ****      _Callback_list*	_M_callbacks;
 617:/usr/include/c++/14/bits/ios_base.h **** 
 618:/usr/include/c++/14/bits/ios_base.h ****     void
 619:/usr/include/c++/14/bits/ios_base.h ****     _M_call_callbacks(event __ev) throw();
 620:/usr/include/c++/14/bits/ios_base.h **** 
 621:/usr/include/c++/14/bits/ios_base.h ****     void
 622:/usr/include/c++/14/bits/ios_base.h ****     _M_dispose_callbacks(void) throw();
 623:/usr/include/c++/14/bits/ios_base.h **** 
 624:/usr/include/c++/14/bits/ios_base.h ****     // 27.4.2.5  Members for iword/pword storage
 625:/usr/include/c++/14/bits/ios_base.h ****     struct _Words
 626:/usr/include/c++/14/bits/ios_base.h ****     {
 627:/usr/include/c++/14/bits/ios_base.h ****       void*	_M_pword;
 628:/usr/include/c++/14/bits/ios_base.h ****       long	_M_iword;
 629:/usr/include/c++/14/bits/ios_base.h ****       _Words() : _M_pword(0), _M_iword(0) { }
 630:/usr/include/c++/14/bits/ios_base.h ****     };
 631:/usr/include/c++/14/bits/ios_base.h **** 
 632:/usr/include/c++/14/bits/ios_base.h ****     // Only for failed iword/pword calls.
 633:/usr/include/c++/14/bits/ios_base.h ****     _Words		_M_word_zero;
 634:/usr/include/c++/14/bits/ios_base.h **** 
 635:/usr/include/c++/14/bits/ios_base.h ****     // Guaranteed storage.
 636:/usr/include/c++/14/bits/ios_base.h ****     // The first 5 iword and pword slots are reserved for internal use.
 637:/usr/include/c++/14/bits/ios_base.h ****     enum { _S_local_word_size = 8 };
 638:/usr/include/c++/14/bits/ios_base.h ****     _Words		_M_local_word[_S_local_word_size];
 639:/usr/include/c++/14/bits/ios_base.h **** 
 640:/usr/include/c++/14/bits/ios_base.h ****     // Allocated storage.
 641:/usr/include/c++/14/bits/ios_base.h ****     int			_M_word_size;
 642:/usr/include/c++/14/bits/ios_base.h ****     _Words*		_M_word;
 643:/usr/include/c++/14/bits/ios_base.h **** 
 644:/usr/include/c++/14/bits/ios_base.h ****     _Words&
 645:/usr/include/c++/14/bits/ios_base.h ****     _M_grow_words(int __index, bool __iword);
 646:/usr/include/c++/14/bits/ios_base.h **** 
 647:/usr/include/c++/14/bits/ios_base.h ****     // Members for locale and locale caching.
 648:/usr/include/c++/14/bits/ios_base.h ****     locale		_M_ios_locale;
 649:/usr/include/c++/14/bits/ios_base.h **** 
 650:/usr/include/c++/14/bits/ios_base.h ****     void
 651:/usr/include/c++/14/bits/ios_base.h ****     _M_init() throw();
 652:/usr/include/c++/14/bits/ios_base.h **** 
 653:/usr/include/c++/14/bits/ios_base.h ****   public:
 654:/usr/include/c++/14/bits/ios_base.h **** 
 655:/usr/include/c++/14/bits/ios_base.h ****     // 27.4.2.1.6  Class ios_base::Init
 656:/usr/include/c++/14/bits/ios_base.h ****     // Used to initialize standard streams. In theory, g++ could use
 657:/usr/include/c++/14/bits/ios_base.h ****     // -finit-priority to order this stuff correctly without going
 658:/usr/include/c++/14/bits/ios_base.h ****     // through these machinations.
 659:/usr/include/c++/14/bits/ios_base.h ****     class Init
 660:/usr/include/c++/14/bits/ios_base.h ****     {
 661:/usr/include/c++/14/bits/ios_base.h ****       friend class ios_base;
 662:/usr/include/c++/14/bits/ios_base.h ****     public:
 663:/usr/include/c++/14/bits/ios_base.h ****       Init();
 664:/usr/include/c++/14/bits/ios_base.h ****       ~Init();
 665:/usr/include/c++/14/bits/ios_base.h **** 
 666:/usr/include/c++/14/bits/ios_base.h **** #if __cplusplus >= 201103L
 667:/usr/include/c++/14/bits/ios_base.h ****       Init(const Init&) = default;
 668:/usr/include/c++/14/bits/ios_base.h ****       Init& operator=(const Init&) = default;
 669:/usr/include/c++/14/bits/ios_base.h **** #endif
 670:/usr/include/c++/14/bits/ios_base.h **** 
 671:/usr/include/c++/14/bits/ios_base.h ****     private:
 672:/usr/include/c++/14/bits/ios_base.h ****       static _Atomic_word	_S_refcount;
GAS LISTING linobj/Ch02_03.s 			page 54


 673:/usr/include/c++/14/bits/ios_base.h ****       static bool		_S_synced_with_stdio;
 674:/usr/include/c++/14/bits/ios_base.h ****     };
 675:/usr/include/c++/14/bits/ios_base.h **** 
 676:/usr/include/c++/14/bits/ios_base.h ****     // [27.4.2.2] fmtflags state functions
 677:/usr/include/c++/14/bits/ios_base.h ****     /**
 678:/usr/include/c++/14/bits/ios_base.h ****      *  @brief  Access to format flags.
 679:/usr/include/c++/14/bits/ios_base.h ****      *  @return  The format control flags for both input and output.
 680:/usr/include/c++/14/bits/ios_base.h ****     */
 681:/usr/include/c++/14/bits/ios_base.h ****     fmtflags
 682:/usr/include/c++/14/bits/ios_base.h ****     flags() const
 683:/usr/include/c++/14/bits/ios_base.h ****     { return _M_flags; }
 684:/usr/include/c++/14/bits/ios_base.h **** 
 685:/usr/include/c++/14/bits/ios_base.h ****     /**
 686:/usr/include/c++/14/bits/ios_base.h ****      *  @brief  Setting new format flags all at once.
 687:/usr/include/c++/14/bits/ios_base.h ****      *  @param  __fmtfl  The new flags to set.
 688:/usr/include/c++/14/bits/ios_base.h ****      *  @return  The previous format control flags.
 689:/usr/include/c++/14/bits/ios_base.h ****      *
 690:/usr/include/c++/14/bits/ios_base.h ****      *  This function overwrites all the format flags with @a __fmtfl.
 691:/usr/include/c++/14/bits/ios_base.h ****     */
 692:/usr/include/c++/14/bits/ios_base.h ****     fmtflags
 693:/usr/include/c++/14/bits/ios_base.h ****     flags(fmtflags __fmtfl)
 694:/usr/include/c++/14/bits/ios_base.h ****     {
 695:/usr/include/c++/14/bits/ios_base.h ****       fmtflags __old = _M_flags;
 696:/usr/include/c++/14/bits/ios_base.h ****       _M_flags = __fmtfl;
 697:/usr/include/c++/14/bits/ios_base.h ****       return __old;
 698:/usr/include/c++/14/bits/ios_base.h ****     }
 699:/usr/include/c++/14/bits/ios_base.h **** 
 700:/usr/include/c++/14/bits/ios_base.h ****     /**
 701:/usr/include/c++/14/bits/ios_base.h ****      *  @brief  Setting new format flags.
 702:/usr/include/c++/14/bits/ios_base.h ****      *  @param  __fmtfl  Additional flags to set.
 703:/usr/include/c++/14/bits/ios_base.h ****      *  @return  The previous format control flags.
 704:/usr/include/c++/14/bits/ios_base.h ****      *
 705:/usr/include/c++/14/bits/ios_base.h ****      *  This function sets additional flags in format control.  Flags that
 706:/usr/include/c++/14/bits/ios_base.h ****      *  were previously set remain set.
 707:/usr/include/c++/14/bits/ios_base.h ****     */
 708:/usr/include/c++/14/bits/ios_base.h ****     fmtflags
 709:/usr/include/c++/14/bits/ios_base.h ****     setf(fmtflags __fmtfl)
 710:/usr/include/c++/14/bits/ios_base.h ****     {
 711:/usr/include/c++/14/bits/ios_base.h ****       fmtflags __old = _M_flags;
 712:/usr/include/c++/14/bits/ios_base.h ****       _M_flags |= __fmtfl;
 713:/usr/include/c++/14/bits/ios_base.h ****       return __old;
 714:/usr/include/c++/14/bits/ios_base.h ****     }
 715:/usr/include/c++/14/bits/ios_base.h **** 
 716:/usr/include/c++/14/bits/ios_base.h ****     /**
 717:/usr/include/c++/14/bits/ios_base.h ****      *  @brief  Setting new format flags.
 718:/usr/include/c++/14/bits/ios_base.h ****      *  @param  __fmtfl  Additional flags to set.
 719:/usr/include/c++/14/bits/ios_base.h ****      *  @param  __mask  The flags mask for @a fmtfl.
 720:/usr/include/c++/14/bits/ios_base.h ****      *  @return  The previous format control flags.
 721:/usr/include/c++/14/bits/ios_base.h ****      *
 722:/usr/include/c++/14/bits/ios_base.h ****      *  This function clears @a mask in the format flags, then sets
 723:/usr/include/c++/14/bits/ios_base.h ****      *  @a fmtfl @c & @a mask.  An example mask is @c ios_base::adjustfield.
 724:/usr/include/c++/14/bits/ios_base.h ****     */
 725:/usr/include/c++/14/bits/ios_base.h ****     fmtflags
 726:/usr/include/c++/14/bits/ios_base.h ****     setf(fmtflags __fmtfl, fmtflags __mask)
 727:/usr/include/c++/14/bits/ios_base.h ****     {
 728:/usr/include/c++/14/bits/ios_base.h ****       fmtflags __old = _M_flags;
 729:/usr/include/c++/14/bits/ios_base.h ****       _M_flags &= ~__mask;
GAS LISTING linobj/Ch02_03.s 			page 55


 730:/usr/include/c++/14/bits/ios_base.h ****       _M_flags |= (__fmtfl & __mask);
 731:/usr/include/c++/14/bits/ios_base.h ****       return __old;
 732:/usr/include/c++/14/bits/ios_base.h ****     }
 733:/usr/include/c++/14/bits/ios_base.h **** 
 734:/usr/include/c++/14/bits/ios_base.h ****     /**
 735:/usr/include/c++/14/bits/ios_base.h ****      *  @brief  Clearing format flags.
 736:/usr/include/c++/14/bits/ios_base.h ****      *  @param  __mask  The flags to unset.
 737:/usr/include/c++/14/bits/ios_base.h ****      *
 738:/usr/include/c++/14/bits/ios_base.h ****      *  This function clears @a __mask in the format flags.
 739:/usr/include/c++/14/bits/ios_base.h ****     */
 740:/usr/include/c++/14/bits/ios_base.h ****     void
 741:/usr/include/c++/14/bits/ios_base.h ****     unsetf(fmtflags __mask)
 742:/usr/include/c++/14/bits/ios_base.h ****     { _M_flags &= ~__mask; }
 743:/usr/include/c++/14/bits/ios_base.h **** 
 744:/usr/include/c++/14/bits/ios_base.h ****     /**
 745:/usr/include/c++/14/bits/ios_base.h ****      *  @brief  Flags access.
 746:/usr/include/c++/14/bits/ios_base.h ****      *  @return  The precision to generate on certain output operations.
 747:/usr/include/c++/14/bits/ios_base.h ****      *
 748:/usr/include/c++/14/bits/ios_base.h ****      *  Be careful if you try to give a definition of @a precision here; see
 749:/usr/include/c++/14/bits/ios_base.h ****      *  DR 189.
 750:/usr/include/c++/14/bits/ios_base.h ****     */
 751:/usr/include/c++/14/bits/ios_base.h ****     streamsize
 752:/usr/include/c++/14/bits/ios_base.h ****     precision() const
 753:/usr/include/c++/14/bits/ios_base.h ****     { return _M_precision; }
 754:/usr/include/c++/14/bits/ios_base.h **** 
 755:/usr/include/c++/14/bits/ios_base.h ****     /**
 756:/usr/include/c++/14/bits/ios_base.h ****      *  @brief  Changing flags.
 757:/usr/include/c++/14/bits/ios_base.h ****      *  @param  __prec  The new precision value.
 758:/usr/include/c++/14/bits/ios_base.h ****      *  @return  The previous value of precision().
 759:/usr/include/c++/14/bits/ios_base.h ****     */
 760:/usr/include/c++/14/bits/ios_base.h ****     streamsize
 761:/usr/include/c++/14/bits/ios_base.h ****     precision(streamsize __prec)
 762:/usr/include/c++/14/bits/ios_base.h ****     {
 763:/usr/include/c++/14/bits/ios_base.h ****       streamsize __old = _M_precision;
 764:/usr/include/c++/14/bits/ios_base.h ****       _M_precision = __prec;
 765:/usr/include/c++/14/bits/ios_base.h ****       return __old;
 766:/usr/include/c++/14/bits/ios_base.h ****     }
 767:/usr/include/c++/14/bits/ios_base.h **** 
 768:/usr/include/c++/14/bits/ios_base.h ****     /**
 769:/usr/include/c++/14/bits/ios_base.h ****      *  @brief  Flags access.
 770:/usr/include/c++/14/bits/ios_base.h ****      *  @return  The minimum field width to generate on output operations.
 771:/usr/include/c++/14/bits/ios_base.h ****      *
 772:/usr/include/c++/14/bits/ios_base.h ****      *  <em>Minimum field width</em> refers to the number of characters.
 773:/usr/include/c++/14/bits/ios_base.h ****     */
 774:/usr/include/c++/14/bits/ios_base.h ****     streamsize
 775:/usr/include/c++/14/bits/ios_base.h ****     width() const
 776:/usr/include/c++/14/bits/ios_base.h ****     { return _M_width; }
 777:/usr/include/c++/14/bits/ios_base.h **** 
 778:/usr/include/c++/14/bits/ios_base.h ****     /**
 779:/usr/include/c++/14/bits/ios_base.h ****      *  @brief  Changing flags.
 780:/usr/include/c++/14/bits/ios_base.h ****      *  @param  __wide  The new width value.
 781:/usr/include/c++/14/bits/ios_base.h ****      *  @return  The previous value of width().
 782:/usr/include/c++/14/bits/ios_base.h ****     */
 783:/usr/include/c++/14/bits/ios_base.h ****     streamsize
 784:/usr/include/c++/14/bits/ios_base.h ****     width(streamsize __wide)
 291              		.loc 7 784 5 view .LVU72
 292              	.LBB720:
GAS LISTING linobj/Ch02_03.s 			page 56


 785:/usr/include/c++/14/bits/ios_base.h ****     {
 786:/usr/include/c++/14/bits/ios_base.h ****       streamsize __old = _M_width;
 293              		.loc 7 786 7 view .LVU73
 787:/usr/include/c++/14/bits/ios_base.h ****       _M_width = __wide;
 294              		.loc 7 787 7 view .LVU74
 295              	.LBE720:
 296              	.LBE719:
 246:/usr/include/c++/14/iomanip ****     {
 247:/usr/include/c++/14/iomanip ****       __os.width(__f._M_n);
 297              		.loc 6 247 17 is_stmt 0 view .LVU75
 298 00b6 498B07   		movq	(%r15), %rax
 299              	.LBE718:
 300              	.LBE717:
 301              		.loc 1 46 74 discriminator 2 view .LVU76
 302 00b9 4C89FF   		movq	%r15, %rdi
 303              	.LBB724:
 304              	.LBB723:
 305              	.LBB722:
 306              	.LBB721:
 307              		.loc 7 787 16 view .LVU77
 308 00bc 488B40E8 		movq	-24(%rax), %rax
 309 00c0 49C74407 		movq	$8, 16(%r15,%rax)
 309      10080000 
 309      00
 310              	.LVL13:
 788:/usr/include/c++/14/bits/ios_base.h ****       return __old;
 311              		.loc 7 788 7 is_stmt 1 view .LVU78
 312              		.loc 7 788 7 is_stmt 0 view .LVU79
 313              	.LBE721:
 314              	.LBE722:
 315              	.LBE723:
 316              	.LBE724:
 317              		.loc 1 46 74 discriminator 2 view .LVU80
 318 00c9 410FBF34 		movswl	(%r12,%rbx,2), %esi
 318      5C
 319 00ce E8000000 		call	_ZNSolsEs
 319      00
 320              	.LVL14:
 321 00d3 4889C7   		movq	%rax, %rdi
 322              	.LVL15:
 323              	.LBB725:
 324              	.LBI725:
 668:/usr/include/c++/14/ostream ****     {
 325              		.loc 5 668 5 is_stmt 1 view .LVU81
 326              	.LBB726:
 327              		.loc 5 673 18 is_stmt 0 view .LVU82
 328 00d6 BA020000 		movl	$2, %edx
 328      00
 329 00db BE000000 		movl	$.LC5, %esi
 329      00
 330 00e0 E8000000 		call	_ZSt16__ostream_insertIcSt11char_traitsIcEERSt13basic_ostreamIT_T0_ES6_PKS3_l
 330      00
 331              	.LVL16:
 332              		.loc 5 673 18 view .LVU83
 333              	.LBE726:
 334              	.LBE725:
  47:Ch02_03.cpp   ****         std::cout << "b[" << i << "]: " << std::setw(8) << b.m_I16[i] << "  ";
GAS LISTING linobj/Ch02_03.s 			page 57


 335              		.loc 1 47 9 is_stmt 1 view .LVU84
 336              	.LBB727:
 337              	.LBI727:
 668:/usr/include/c++/14/ostream ****     {
 338              		.loc 5 668 5 view .LVU85
 339              	.LBB728:
 340              		.loc 5 673 18 is_stmt 0 view .LVU86
 341 00e5 BA020000 		movl	$2, %edx
 341      00
 342 00ea BE000000 		movl	$.LC6, %esi
 342      00
 343 00ef BF000000 		movl	$_ZSt4cout, %edi
 343      00
 344 00f4 E8000000 		call	_ZSt16__ostream_insertIcSt11char_traitsIcEERSt13basic_ostreamIT_T0_ES6_PKS3_l
 344      00
 345              	.LVL17:
 346              		.loc 5 673 18 view .LVU87
 347              	.LBE728:
 348              	.LBE727:
 349              	.LBB729:
 350              	.LBI729:
 178:/usr/include/c++/14/ostream ****       { return _M_insert(__n); }
 351              		.loc 5 178 7 is_stmt 1 view .LVU88
 352              	.LBB730:
 179:/usr/include/c++/14/ostream **** 
 353              		.loc 5 179 25 is_stmt 0 view .LVU89
 354 00f9 4889DE   		movq	%rbx, %rsi
 355 00fc BF000000 		movl	$_ZSt4cout, %edi
 355      00
 356 0101 E8000000 		call	_ZNSo9_M_insertImEERSoT_
 356      00
 357              	.LVL18:
 358              	.LBE730:
 359              	.LBE729:
 360              	.LBB732:
 361              	.LBB733:
 362              		.loc 5 673 18 view .LVU90
 363 0106 BA030000 		movl	$3, %edx
 363      00
 364 010b BE000000 		movl	$.LC4, %esi
 364      00
 365 0110 4889C7   		movq	%rax, %rdi
 366              	.LBE733:
 367              	.LBE732:
 368              	.LBB735:
 369              	.LBB731:
 179:/usr/include/c++/14/ostream **** 
 370              		.loc 5 179 25 view .LVU91
 371 0113 4989C7   		movq	%rax, %r15
 372              	.LVL19:
 179:/usr/include/c++/14/ostream **** 
 373              		.loc 5 179 25 view .LVU92
 374              	.LBE731:
 375              	.LBE735:
 376              	.LBB736:
 377              	.LBI732:
 668:/usr/include/c++/14/ostream ****     {
GAS LISTING linobj/Ch02_03.s 			page 58


 378              		.loc 5 668 5 is_stmt 1 view .LVU93
 379              	.LBB734:
 380              		.loc 5 673 18 is_stmt 0 view .LVU94
 381 0116 E8000000 		call	_ZSt16__ostream_insertIcSt11char_traitsIcEERSt13basic_ostreamIT_T0_ES6_PKS3_l
 381      00
 382              	.LVL20:
 383              		.loc 5 673 18 view .LVU95
 384              	.LBE734:
 385              	.LBE736:
 386              	.LBB737:
 387              	.LBI737:
 245:/usr/include/c++/14/iomanip ****     {
 388              		.loc 6 245 5 is_stmt 1 view .LVU96
 389              	.LBB738:
 390              	.LBB739:
 391              	.LBI739:
 784:/usr/include/c++/14/bits/ios_base.h ****     {
 392              		.loc 7 784 5 view .LVU97
 393              	.LBB740:
 786:/usr/include/c++/14/bits/ios_base.h ****       _M_width = __wide;
 394              		.loc 7 786 7 view .LVU98
 787:/usr/include/c++/14/bits/ios_base.h ****       return __old;
 395              		.loc 7 787 7 view .LVU99
 396              	.LBE740:
 397              	.LBE739:
 398              		.loc 6 247 17 is_stmt 0 view .LVU100
 399 011b 498B07   		movq	(%r15), %rax
 400              	.LBE738:
 401              	.LBE737:
 402              		.loc 1 47 74 discriminator 2 view .LVU101
 403 011e 4C89FF   		movq	%r15, %rdi
 404              	.LBB744:
 405              	.LBB743:
 406              	.LBB742:
 407              	.LBB741:
 787:/usr/include/c++/14/bits/ios_base.h ****       return __old;
 408              		.loc 7 787 16 view .LVU102
 409 0121 488B40E8 		movq	-24(%rax), %rax
 410 0125 49C74407 		movq	$8, 16(%r15,%rax)
 410      10080000 
 410      00
 411              	.LVL21:
 412              		.loc 7 788 7 is_stmt 1 view .LVU103
 413              		.loc 7 788 7 is_stmt 0 view .LVU104
 414              	.LBE741:
 415              	.LBE742:
 416              	.LBE743:
 417              	.LBE744:
 418              		.loc 1 47 74 discriminator 2 view .LVU105
 419 012e 410FBF74 		movswl	0(%r13,%rbx,2), %esi
 419      5D00
 420 0134 E8000000 		call	_ZNSolsEs
 420      00
 421              	.LVL22:
 422 0139 4889C7   		movq	%rax, %rdi
 423              	.LVL23:
 424              	.LBB745:
GAS LISTING linobj/Ch02_03.s 			page 59


 425              	.LBI745:
 668:/usr/include/c++/14/ostream ****     {
 426              		.loc 5 668 5 is_stmt 1 view .LVU106
 427              	.LBB746:
 428              		.loc 5 673 18 is_stmt 0 view .LVU107
 429 013c BA020000 		movl	$2, %edx
 429      00
 430 0141 BE000000 		movl	$.LC5, %esi
 430      00
 431 0146 E8000000 		call	_ZSt16__ostream_insertIcSt11char_traitsIcEERSt13basic_ostreamIT_T0_ES6_PKS3_l
 431      00
 432              	.LVL24:
 433              		.loc 5 673 18 view .LVU108
 434              	.LBE746:
 435              	.LBE745:
  48:Ch02_03.cpp   **** 
  49:Ch02_03.cpp   ****         if (i < 4)
 436              		.loc 1 49 9 is_stmt 1 view .LVU109
 437              	.LBB747:
 438              	.LBB748:
 439              		.loc 5 673 18 is_stmt 0 view .LVU110
 440 014b BA050000 		movl	$5, %edx
 440      00
 441              	.LBE748:
 442              	.LBE747:
 443              		.loc 1 49 9 view .LVU111
 444 0150 4883FB03 		cmpq	$3, %rbx
 445 0154 0F878600 		ja	.L2
 445      0000
  50:Ch02_03.cpp   ****         {
  51:Ch02_03.cpp   ****             std::cout << "c[0][" << i << "]: ";
 446              		.loc 1 51 13 is_stmt 1 view .LVU112
 447              	.LVL25:
 448              	.LBB750:
 449              	.LBI747:
 668:/usr/include/c++/14/ostream ****     {
 450              		.loc 5 668 5 view .LVU113
 451              	.LBB749:
 452              		.loc 5 673 18 is_stmt 0 view .LVU114
 453 015a BE000000 		movl	$.LC7, %esi
 453      00
 454 015f BF000000 		movl	$_ZSt4cout, %edi
 454      00
 455 0164 E8000000 		call	_ZSt16__ostream_insertIcSt11char_traitsIcEERSt13basic_ostreamIT_T0_ES6_PKS3_l
 455      00
 456              	.LVL26:
 457              		.loc 5 673 18 view .LVU115
 458              	.LBE749:
 459              	.LBE750:
 460              	.LBB751:
 461              	.LBI751:
 178:/usr/include/c++/14/ostream ****       { return _M_insert(__n); }
 462              		.loc 5 178 7 is_stmt 1 view .LVU116
 463              	.LBB752:
 179:/usr/include/c++/14/ostream **** 
 464              		.loc 5 179 25 is_stmt 0 view .LVU117
 465 0169 4889DE   		movq	%rbx, %rsi
GAS LISTING linobj/Ch02_03.s 			page 60


 466 016c BF000000 		movl	$_ZSt4cout, %edi
 466      00
 467 0171 E8000000 		call	_ZNSo9_M_insertImEERSoT_
 467      00
 468              	.LVL27:
 469 0176 4889C7   		movq	%rax, %rdi
 470              	.LVL28:
 179:/usr/include/c++/14/ostream **** 
 471              		.loc 5 179 25 view .LVU118
 472              	.LBE752:
 473              	.LBE751:
 474              	.LBB753:
 475              	.LBI753:
 668:/usr/include/c++/14/ostream ****     {
 476              		.loc 5 668 5 is_stmt 1 view .LVU119
 477              	.LBB754:
 478              		.loc 5 673 18 is_stmt 0 view .LVU120
 479 0179 BA030000 		movl	$3, %edx
 479      00
 480 017e BE000000 		movl	$.LC4, %esi
 480      00
 481 0183 E8000000 		call	_ZSt16__ostream_insertIcSt11char_traitsIcEERSt13basic_ostreamIT_T0_ES6_PKS3_l
 481      00
 482              	.LVL29:
 483              		.loc 5 673 18 view .LVU121
 484              	.LBE754:
 485              	.LBE753:
  52:Ch02_03.cpp   ****             std::cout << std::setw(12) << c[0].m_I32[i] << nl;
 486              		.loc 1 52 13 is_stmt 1 view .LVU122
 487              	.LBB755:
 488              	.LBI755:
 245:/usr/include/c++/14/iomanip ****     {
 489              		.loc 6 245 5 view .LVU123
 490              	.LBB756:
 491              	.LBB757:
 492              	.LBI757:
 784:/usr/include/c++/14/bits/ios_base.h ****     {
 493              		.loc 7 784 5 view .LVU124
 494              	.LBB758:
 786:/usr/include/c++/14/bits/ios_base.h ****       _M_width = __wide;
 495              		.loc 7 786 7 view .LVU125
 787:/usr/include/c++/14/bits/ios_base.h ****       return __old;
 496              		.loc 7 787 7 view .LVU126
 497              	.LBE758:
 498              	.LBE757:
 499              		.loc 6 247 17 is_stmt 0 view .LVU127
 500 0188 488B0500 		movq	_ZSt4cout(%rip), %rax
 500      000000
 501              	.LBE756:
 502              	.LBE755:
 503              		.loc 1 52 60 discriminator 2 view .LVU128
 504 018f 8B749D00 		movl	0(%rbp,%rbx,4), %esi
 505 0193 BF000000 		movl	$_ZSt4cout, %edi
 505      00
 506              	.LVL30:
 507              	.LBB762:
 508              	.LBB761:
GAS LISTING linobj/Ch02_03.s 			page 61


 509              	.LBB760:
 510              	.LBB759:
 787:/usr/include/c++/14/bits/ios_base.h ****       return __old;
 511              		.loc 7 787 16 view .LVU129
 512 0198 488B40E8 		movq	-24(%rax), %rax
 513              	.LVL31:
 787:/usr/include/c++/14/bits/ios_base.h ****       return __old;
 514              		.loc 7 787 16 view .LVU130
 515 019c 48C78000 		movq	$12, _ZSt4cout+16(%rax)
 515      0000000C 
 515      000000
 516              	.LVL32:
 517              		.loc 7 788 7 is_stmt 1 view .LVU131
 518              		.loc 7 788 7 is_stmt 0 view .LVU132
 519              	.LBE759:
 520              	.LBE760:
 521              	.LBE761:
 522              	.LBE762:
 523              		.loc 1 52 60 discriminator 2 view .LVU133
 524 01a7 E8000000 		call	_ZNSolsEi
 524      00
 525              	.LVL33:
 526 01ac 4889C7   		movq	%rax, %rdi
 527              	.LVL34:
 528              	.LBB763:
 529              	.LBB764:
 578:/usr/include/c++/14/ostream **** 	return __ostream_insert(__out, &__c, 1);
 530              		.loc 5 578 22 view .LVU134
 531 01af 488B00   		movq	(%rax), %rax
 532              	.LVL35:
 578:/usr/include/c++/14/ostream **** 	return __ostream_insert(__out, &__c, 1);
 533              		.loc 5 578 22 view .LVU135
 534 01b2 C644240B 		movb	$10, 11(%rsp)
 534      0A
 535              	.LVL36:
 578:/usr/include/c++/14/ostream **** 	return __ostream_insert(__out, &__c, 1);
 536              		.loc 5 578 22 view .LVU136
 537              	.LBE764:
 538              	.LBI763:
 576:/usr/include/c++/14/ostream ****     {
 539              		.loc 5 576 5 is_stmt 1 view .LVU137
 540              	.LBB767:
 541              	.LBB765:
 542              	.LBI765:
 775:/usr/include/c++/14/bits/ios_base.h ****     { return _M_width; }
 543              		.loc 7 775 5 view .LVU138
 544              	.LBB766:
 776:/usr/include/c++/14/bits/ios_base.h **** 
 545              		.loc 7 776 7 view .LVU139
 776:/usr/include/c++/14/bits/ios_base.h **** 
 546              		.loc 7 776 14 is_stmt 0 view .LVU140
 547 01b7 488B40E8 		movq	-24(%rax), %rax
 548              	.LBE766:
 549              	.LBE765:
 578:/usr/include/c++/14/ostream **** 	return __ostream_insert(__out, &__c, 1);
 550              		.loc 5 578 7 discriminator 1 view .LVU141
 551 01bb 48837C07 		cmpq	$0, 16(%rdi,%rax)
GAS LISTING linobj/Ch02_03.s 			page 62


 551      1000
 552 01c1 0F84E904 		je	.L3
 552      0000
 579:/usr/include/c++/14/ostream ****       __out.put(__c);
 553              		.loc 5 579 25 view .LVU142
 554 01c7 488D7424 		leaq	11(%rsp), %rsi
 554      0B
 555              	.LVL37:
 579:/usr/include/c++/14/ostream ****       __out.put(__c);
 556              		.loc 5 579 25 view .LVU143
 557 01cc BA010000 		movl	$1, %edx
 557      00
 558 01d1 E8000000 		call	_ZSt16__ostream_insertIcSt11char_traitsIcEERSt13basic_ostreamIT_T0_ES6_PKS3_l
 558      00
 559              	.LVL38:
 560              	.L5:
 579:/usr/include/c++/14/ostream ****       __out.put(__c);
 561              		.loc 5 579 25 view .LVU144
 562              	.LBE767:
 563              	.LBE763:
  44:Ch02_03.cpp   ****     {
 564              		.loc 1 44 5 is_stmt 1 discriminator 2 view .LVU145
 565 01d6 4883C301 		addq	$1, %rbx
 566              	.LVL39:
  44:Ch02_03.cpp   ****     {
 567              		.loc 1 44 26 discriminator 1 view .LVU146
 568 01da E9A1FEFF 		jmp	.L9
 568      FF
 569 01df 90       		.p2align 4,,10
 570              		.p2align 3
 571              	.L2:
  53:Ch02_03.cpp   ****         }
  54:Ch02_03.cpp   ****         else
  55:Ch02_03.cpp   ****         {
  56:Ch02_03.cpp   ****             std::cout << "c[1][" << i - 4 << "]: ";
 572              		.loc 1 56 13 view .LVU147
 573              	.LVL40:
 574              	.LBB769:
 575              	.LBI769:
 668:/usr/include/c++/14/ostream ****     {
 576              		.loc 5 668 5 view .LVU148
 577              	.LBB770:
 578              		.loc 5 673 18 is_stmt 0 view .LVU149
 579 01e0 BE000000 		movl	$.LC8, %esi
 579      00
 580 01e5 BF000000 		movl	$_ZSt4cout, %edi
 580      00
 581 01ea E8000000 		call	_ZSt16__ostream_insertIcSt11char_traitsIcEERSt13basic_ostreamIT_T0_ES6_PKS3_l
 581      00
 582              	.LVL41:
 583              		.loc 5 673 18 view .LVU150
 584              	.LBE770:
 585              	.LBE769:
 586              	.LBB771:
 587              	.LBI771:
 178:/usr/include/c++/14/ostream ****       { return _M_insert(__n); }
 588              		.loc 5 178 7 is_stmt 1 view .LVU151
GAS LISTING linobj/Ch02_03.s 			page 63


 589              	.LBE771:
 590              		.loc 1 56 41 is_stmt 0 discriminator 1 view .LVU152
 591 01ef 488D73FC 		leaq	-4(%rbx), %rsi
 592              	.LVL42:
 593              	.LBB773:
 594              	.LBB772:
 179:/usr/include/c++/14/ostream **** 
 595              		.loc 5 179 25 view .LVU153
 596 01f3 BF000000 		movl	$_ZSt4cout, %edi
 596      00
 597 01f8 E8000000 		call	_ZNSo9_M_insertImEERSoT_
 597      00
 598              	.LVL43:
 179:/usr/include/c++/14/ostream **** 
 599              		.loc 5 179 25 view .LVU154
 600 01fd 4889C7   		movq	%rax, %rdi
 601              	.LVL44:
 179:/usr/include/c++/14/ostream **** 
 602              		.loc 5 179 25 view .LVU155
 603              	.LBE772:
 604              	.LBE773:
 605              	.LBB774:
 606              	.LBI774:
 668:/usr/include/c++/14/ostream ****     {
 607              		.loc 5 668 5 is_stmt 1 view .LVU156
 608              	.LBB775:
 609              		.loc 5 673 18 is_stmt 0 view .LVU157
 610 0200 BA030000 		movl	$3, %edx
 610      00
 611 0205 BE000000 		movl	$.LC4, %esi
 611      00
 612 020a E8000000 		call	_ZSt16__ostream_insertIcSt11char_traitsIcEERSt13basic_ostreamIT_T0_ES6_PKS3_l
 612      00
 613              	.LVL45:
 614              		.loc 5 673 18 view .LVU158
 615              	.LBE775:
 616              	.LBE774:
  57:Ch02_03.cpp   ****             std::cout << std::setw(12) << c[1].m_I32[i - 4] << nl;
 617              		.loc 1 57 13 is_stmt 1 view .LVU159
 618              	.LBB776:
 619              	.LBI776:
 245:/usr/include/c++/14/iomanip ****     {
 620              		.loc 6 245 5 view .LVU160
 621              	.LBB777:
 622              	.LBB778:
 623              	.LBI778:
 784:/usr/include/c++/14/bits/ios_base.h ****     {
 624              		.loc 7 784 5 view .LVU161
 625              	.LBB779:
 786:/usr/include/c++/14/bits/ios_base.h ****       _M_width = __wide;
 626              		.loc 7 786 7 view .LVU162
 787:/usr/include/c++/14/bits/ios_base.h ****       return __old;
 627              		.loc 7 787 7 view .LVU163
 628              	.LBE779:
 629              	.LBE778:
 630              		.loc 6 247 17 is_stmt 0 view .LVU164
 631 020f 488B0500 		movq	_ZSt4cout(%rip), %rax
GAS LISTING linobj/Ch02_03.s 			page 64


 631      000000
 632              	.LBE777:
 633              	.LBE776:
 634              		.loc 1 57 64 discriminator 2 view .LVU165
 635 0216 8B749D00 		movl	0(%rbp,%rbx,4), %esi
 636 021a BF000000 		movl	$_ZSt4cout, %edi
 636      00
 637              	.LVL46:
 638              	.LBB783:
 639              	.LBB782:
 640              	.LBB781:
 641              	.LBB780:
 787:/usr/include/c++/14/bits/ios_base.h ****       return __old;
 642              		.loc 7 787 16 view .LVU166
 643 021f 488B40E8 		movq	-24(%rax), %rax
 644              	.LVL47:
 787:/usr/include/c++/14/bits/ios_base.h ****       return __old;
 645              		.loc 7 787 16 view .LVU167
 646 0223 48C78000 		movq	$12, _ZSt4cout+16(%rax)
 646      0000000C 
 646      000000
 647              	.LVL48:
 648              		.loc 7 788 7 is_stmt 1 view .LVU168
 649              		.loc 7 788 7 is_stmt 0 view .LVU169
 650              	.LBE780:
 651              	.LBE781:
 652              	.LBE782:
 653              	.LBE783:
 654              		.loc 1 57 64 discriminator 2 view .LVU170
 655 022e E8000000 		call	_ZNSolsEi
 655      00
 656              	.LVL49:
 657 0233 4889C7   		movq	%rax, %rdi
 658              	.LVL50:
 659              	.LBB784:
 660              	.LBB785:
 578:/usr/include/c++/14/ostream **** 	return __ostream_insert(__out, &__c, 1);
 661              		.loc 5 578 22 view .LVU171
 662 0236 488B00   		movq	(%rax), %rax
 663              	.LVL51:
 578:/usr/include/c++/14/ostream **** 	return __ostream_insert(__out, &__c, 1);
 664              		.loc 5 578 22 view .LVU172
 665 0239 C644240C 		movb	$10, 12(%rsp)
 665      0A
 666              	.LVL52:
 578:/usr/include/c++/14/ostream **** 	return __ostream_insert(__out, &__c, 1);
 667              		.loc 5 578 22 view .LVU173
 668              	.LBE785:
 669              	.LBI784:
 576:/usr/include/c++/14/ostream ****     {
 670              		.loc 5 576 5 is_stmt 1 view .LVU174
 671              	.LBB788:
 672              	.LBB786:
 673              	.LBI786:
 775:/usr/include/c++/14/bits/ios_base.h ****     { return _M_width; }
 674              		.loc 7 775 5 view .LVU175
 675              	.LBB787:
GAS LISTING linobj/Ch02_03.s 			page 65


 776:/usr/include/c++/14/bits/ios_base.h **** 
 676              		.loc 7 776 7 view .LVU176
 776:/usr/include/c++/14/bits/ios_base.h **** 
 677              		.loc 7 776 14 is_stmt 0 view .LVU177
 678 023e 488B40E8 		movq	-24(%rax), %rax
 679              	.LBE787:
 680              	.LBE786:
 578:/usr/include/c++/14/ostream **** 	return __ostream_insert(__out, &__c, 1);
 681              		.loc 5 578 7 discriminator 1 view .LVU178
 682 0242 48837C07 		cmpq	$0, 16(%rdi,%rax)
 682      1000
 683 0248 0F845204 		je	.L6
 683      0000
 579:/usr/include/c++/14/ostream ****       __out.put(__c);
 684              		.loc 5 579 25 view .LVU179
 685 024e BA010000 		movl	$1, %edx
 685      00
 686 0253 488D7424 		leaq	12(%rsp), %rsi
 686      0C
 687              	.LVL53:
 579:/usr/include/c++/14/ostream ****       __out.put(__c);
 688              		.loc 5 579 25 view .LVU180
 689 0258 E8000000 		call	_ZSt16__ostream_insertIcSt11char_traitsIcEERSt13basic_ostreamIT_T0_ES6_PKS3_l
 689      00
 690              	.LVL54:
 691              	.L8:
 579:/usr/include/c++/14/ostream ****       __out.put(__c);
 692              		.loc 5 579 25 view .LVU181
 693              	.LBE788:
 694              	.LBE784:
  44:Ch02_03.cpp   ****     {
 695              		.loc 1 44 5 is_stmt 1 discriminator 2 view .LVU182
 696 025d 4883C301 		addq	$1, %rbx
 697              	.LVL55:
  44:Ch02_03.cpp   ****     {
 698              		.loc 1 44 26 discriminator 1 view .LVU183
 699 0261 4883FB08 		cmpq	$8, %rbx
 700 0265 0F8515FE 		jne	.L9
 700      FFFF
 701              	.LVL56:
  44:Ch02_03.cpp   ****     {
 702              		.loc 1 44 26 is_stmt 0 discriminator 1 view .LVU184
 703              	.LBE706:
 704              	.LBE793:
 705              	.LBE798:
  20:Ch02_03.cpp   ****     MulI32a();
 706              		.loc 1 20 5 is_stmt 1 view .LVU185
  20:Ch02_03.cpp   ****     MulI32a();
 707              		.loc 1 20 31 is_stmt 0 view .LVU186
 708 026b BE0A0000 		movl	$10, %esi
 708      00
 709 0270 BF000000 		movl	$_ZSt4cout, %edi
 709      00
 710 0275 E8000000 		call	_ZStlsISt11char_traitsIcEERSt13basic_ostreamIcT_ES5_c
 710      00
 711              	.LVL57:
 712              	.LBB799:
GAS LISTING linobj/Ch02_03.s 			page 66


 713              	.LBB800:
 672:/usr/include/c++/14/bits/basic_string.h **** 
 673:/usr/include/c++/14/bits/basic_string.h **** #if __cplusplus >= 201103L
 674:/usr/include/c++/14/bits/basic_string.h ****       /**
 675:/usr/include/c++/14/bits/basic_string.h ****        *  @brief  Move construct string.
 676:/usr/include/c++/14/bits/basic_string.h ****        *  @param  __str  Source string.
 677:/usr/include/c++/14/bits/basic_string.h ****        *
 678:/usr/include/c++/14/bits/basic_string.h ****        *  The newly-created string contains the exact contents of @a __str.
 679:/usr/include/c++/14/bits/basic_string.h ****        *  @a __str is a valid, but unspecified string.
 680:/usr/include/c++/14/bits/basic_string.h ****        */
 681:/usr/include/c++/14/bits/basic_string.h ****       _GLIBCXX20_CONSTEXPR
 682:/usr/include/c++/14/bits/basic_string.h ****       basic_string(basic_string&& __str) noexcept
 683:/usr/include/c++/14/bits/basic_string.h ****       : _M_dataplus(_M_local_data(), std::move(__str._M_get_allocator()))
 684:/usr/include/c++/14/bits/basic_string.h ****       {
 685:/usr/include/c++/14/bits/basic_string.h **** 	if (__str._M_is_local())
 686:/usr/include/c++/14/bits/basic_string.h **** 	  {
 687:/usr/include/c++/14/bits/basic_string.h **** 	    _M_init_local_buf();
 688:/usr/include/c++/14/bits/basic_string.h **** 	    traits_type::copy(_M_local_buf, __str._M_local_buf,
 689:/usr/include/c++/14/bits/basic_string.h **** 			      __str.length() + 1);
 690:/usr/include/c++/14/bits/basic_string.h **** 	  }
 691:/usr/include/c++/14/bits/basic_string.h **** 	else
 692:/usr/include/c++/14/bits/basic_string.h **** 	  {
 693:/usr/include/c++/14/bits/basic_string.h **** 	    _M_data(__str._M_data());
 694:/usr/include/c++/14/bits/basic_string.h **** 	    _M_capacity(__str._M_allocated_capacity);
 695:/usr/include/c++/14/bits/basic_string.h **** 	  }
 696:/usr/include/c++/14/bits/basic_string.h **** 
 697:/usr/include/c++/14/bits/basic_string.h **** 	// Must use _M_length() here not _M_set_length() because
 698:/usr/include/c++/14/bits/basic_string.h **** 	// basic_stringbuf relies on writing into unallocated capacity so
 699:/usr/include/c++/14/bits/basic_string.h **** 	// we mess up the contents if we put a '\0' in the string.
 700:/usr/include/c++/14/bits/basic_string.h **** 	_M_length(__str.length());
 701:/usr/include/c++/14/bits/basic_string.h **** 	__str._M_data(__str._M_use_local_data());
 702:/usr/include/c++/14/bits/basic_string.h **** 	__str._M_set_length(0);
 703:/usr/include/c++/14/bits/basic_string.h ****       }
 704:/usr/include/c++/14/bits/basic_string.h **** 
 705:/usr/include/c++/14/bits/basic_string.h ****       /**
 706:/usr/include/c++/14/bits/basic_string.h ****        *  @brief  Construct string from an initializer %list.
 707:/usr/include/c++/14/bits/basic_string.h ****        *  @param  __l  std::initializer_list of characters.
 708:/usr/include/c++/14/bits/basic_string.h ****        *  @param  __a  Allocator to use (default is default allocator).
 709:/usr/include/c++/14/bits/basic_string.h ****        */
 710:/usr/include/c++/14/bits/basic_string.h ****       _GLIBCXX20_CONSTEXPR
 711:/usr/include/c++/14/bits/basic_string.h ****       basic_string(initializer_list<_CharT> __l, const _Alloc& __a = _Alloc())
 712:/usr/include/c++/14/bits/basic_string.h ****       : _M_dataplus(_M_local_data(), __a)
 713:/usr/include/c++/14/bits/basic_string.h ****       { _M_construct(__l.begin(), __l.end(), std::forward_iterator_tag()); }
 714:/usr/include/c++/14/bits/basic_string.h **** 
 715:/usr/include/c++/14/bits/basic_string.h ****       _GLIBCXX20_CONSTEXPR
 716:/usr/include/c++/14/bits/basic_string.h ****       basic_string(const basic_string& __str, const _Alloc& __a)
 717:/usr/include/c++/14/bits/basic_string.h ****       : _M_dataplus(_M_local_data(), __a)
 718:/usr/include/c++/14/bits/basic_string.h ****       { _M_construct(__str.begin(), __str.end(), std::forward_iterator_tag()); }
 719:/usr/include/c++/14/bits/basic_string.h **** 
 720:/usr/include/c++/14/bits/basic_string.h ****       _GLIBCXX20_CONSTEXPR
 721:/usr/include/c++/14/bits/basic_string.h ****       basic_string(basic_string&& __str, const _Alloc& __a)
 722:/usr/include/c++/14/bits/basic_string.h ****       noexcept(_Alloc_traits::_S_always_equal())
 723:/usr/include/c++/14/bits/basic_string.h ****       : _M_dataplus(_M_local_data(), __a)
 724:/usr/include/c++/14/bits/basic_string.h ****       {
 725:/usr/include/c++/14/bits/basic_string.h **** 	if (__str._M_is_local())
 726:/usr/include/c++/14/bits/basic_string.h **** 	  {
 727:/usr/include/c++/14/bits/basic_string.h **** 	    _M_init_local_buf();
GAS LISTING linobj/Ch02_03.s 			page 67


 728:/usr/include/c++/14/bits/basic_string.h **** 	    traits_type::copy(_M_local_buf, __str._M_local_buf,
 729:/usr/include/c++/14/bits/basic_string.h **** 			      __str.length() + 1);
 730:/usr/include/c++/14/bits/basic_string.h **** 	    _M_length(__str.length());
 731:/usr/include/c++/14/bits/basic_string.h **** 	    __str._M_set_length(0);
 732:/usr/include/c++/14/bits/basic_string.h **** 	  }
 733:/usr/include/c++/14/bits/basic_string.h **** 	else if (_Alloc_traits::_S_always_equal()
 734:/usr/include/c++/14/bits/basic_string.h **** 	    || __str.get_allocator() == __a)
 735:/usr/include/c++/14/bits/basic_string.h **** 	  {
 736:/usr/include/c++/14/bits/basic_string.h **** 	    _M_data(__str._M_data());
 737:/usr/include/c++/14/bits/basic_string.h **** 	    _M_length(__str.length());
 738:/usr/include/c++/14/bits/basic_string.h **** 	    _M_capacity(__str._M_allocated_capacity);
 739:/usr/include/c++/14/bits/basic_string.h **** 	    __str._M_data(__str._M_use_local_data());
 740:/usr/include/c++/14/bits/basic_string.h **** 	    __str._M_set_length(0);
 741:/usr/include/c++/14/bits/basic_string.h **** 	  }
 742:/usr/include/c++/14/bits/basic_string.h **** 	else
 743:/usr/include/c++/14/bits/basic_string.h **** 	  _M_construct(__str.begin(), __str.end(), std::forward_iterator_tag());
 744:/usr/include/c++/14/bits/basic_string.h ****       }
 745:/usr/include/c++/14/bits/basic_string.h **** #endif // C++11
 746:/usr/include/c++/14/bits/basic_string.h **** 
 747:/usr/include/c++/14/bits/basic_string.h **** #if __cplusplus >= 202100L
 748:/usr/include/c++/14/bits/basic_string.h ****       basic_string(nullptr_t) = delete;
 749:/usr/include/c++/14/bits/basic_string.h ****       basic_string& operator=(nullptr_t) = delete;
 750:/usr/include/c++/14/bits/basic_string.h **** #endif // C++23
 751:/usr/include/c++/14/bits/basic_string.h **** 
 752:/usr/include/c++/14/bits/basic_string.h ****       /**
 753:/usr/include/c++/14/bits/basic_string.h ****        *  @brief  Construct string as copy of a range.
 754:/usr/include/c++/14/bits/basic_string.h ****        *  @param  __beg  Start of range.
 755:/usr/include/c++/14/bits/basic_string.h ****        *  @param  __end  End of range.
 756:/usr/include/c++/14/bits/basic_string.h ****        *  @param  __a  Allocator to use (default is default allocator).
 757:/usr/include/c++/14/bits/basic_string.h ****        */
 758:/usr/include/c++/14/bits/basic_string.h **** #if __cplusplus >= 201103L
 759:/usr/include/c++/14/bits/basic_string.h ****       template<typename _InputIterator,
 760:/usr/include/c++/14/bits/basic_string.h **** 	       typename = std::_RequireInputIter<_InputIterator>>
 761:/usr/include/c++/14/bits/basic_string.h **** #else
 762:/usr/include/c++/14/bits/basic_string.h ****       template<typename _InputIterator>
 763:/usr/include/c++/14/bits/basic_string.h **** #endif
 764:/usr/include/c++/14/bits/basic_string.h **** 	_GLIBCXX20_CONSTEXPR
 765:/usr/include/c++/14/bits/basic_string.h ****         basic_string(_InputIterator __beg, _InputIterator __end,
 766:/usr/include/c++/14/bits/basic_string.h **** 		     const _Alloc& __a = _Alloc())
 767:/usr/include/c++/14/bits/basic_string.h **** 	: _M_dataplus(_M_local_data(), __a), _M_string_length(0)
 768:/usr/include/c++/14/bits/basic_string.h **** 	{
 769:/usr/include/c++/14/bits/basic_string.h **** #if __cplusplus >= 201103L
 770:/usr/include/c++/14/bits/basic_string.h **** 	  _M_construct(__beg, __end, std::__iterator_category(__beg));
 771:/usr/include/c++/14/bits/basic_string.h **** #else
 772:/usr/include/c++/14/bits/basic_string.h **** 	  typedef typename std::__is_integer<_InputIterator>::__type _Integral;
 773:/usr/include/c++/14/bits/basic_string.h **** 	  _M_construct_aux(__beg, __end, _Integral());
 774:/usr/include/c++/14/bits/basic_string.h **** #endif
 775:/usr/include/c++/14/bits/basic_string.h **** 	}
 776:/usr/include/c++/14/bits/basic_string.h **** 
 777:/usr/include/c++/14/bits/basic_string.h **** #if __cplusplus >= 201703L
 778:/usr/include/c++/14/bits/basic_string.h ****       /**
